(lp0
(lp1
F169.7593533929902
aF172.20447403075184
aF167.76122153398742
aF199.48908633409752
aF0.08331914037409345
aa(lp2
F238.51650926524806
aF244.0802095172744
aF246.9482363501043
aF247.25934476535355
aF17.668489721293817
aa(lp3
F237.8962627321953
aF246.20013517286398
aF232.1958245232074
aF247.5095430354282
aF0.4770296358232702
aa(lp4
F226.6772811049115
aF241.79060517968887
aF224.44967636383956
aF227.97306901005157
aF4.518021163834242
aa(lp5
F195.15150990017395
aF244.24124638496824
aF198.62760143378392
aF246.40927866335048
aF0.9634430523586478
aa(lp6
F178.07826988340372
aF226.84645746315056
aF185.04904841001076
aF234.43953359904185
aF0.9845726154163855
aa(lp7
F238.65000305663574
aF247.2083195060208
aF246.11687335552796
aF249.93982615675517
aF2.116224911959981
aa(lp8
F228.62168562914223
aF233.7030129602445
aF237.81902432646848
aF241.59914451431163
aF1.3900818842878275
aa(lp9
F194.04139701946673
aF220.84336215689981
aF200.90034112604002
aF205.94165414344656
aF5.66788915711279
aa(lp10
F230.9933008597669
aF240.30923876413246
aF237.36927110442272
aF248.68263042425866
aF0.825683946846454
aa(lp11
F169.75304554014093
aF180.86662906773049
aF177.3327124062949
aF247.8794563469935
aF0.08939842610570307
aa(lp12
F193.20929627901737
aF239.33611521584564
aF191.67497618224857
aF229.84243046669621
aF1.2511438842284113
aa(lp13
F216.88092661262712
aF246.1281319625772
aF218.04258883998483
aF229.1239230317649
aF2.690409017308964
aa(lp14
F230.65509103056183
aF249.55843452473215
aF229.17706613024862
aF236.12984770111663
aF2.876906445197663
aa(lp15
F183.15076511500047
aF237.61001329181326
aF175.53448739314177
aF197.37840012018447
aF2.9660992433244187
aa(lp16
F153.94558250206342
aF185.44951387874653
aF154.61102762795485
aF184.39876649542222
aF1.0414981327210882
aa(lp17
F170.49888868279672
aF199.55871220040507
aF174.70459551964143
aF222.09070958772395
aF0.5234547351262366
aa(lp18
F204.3458512004952
aF246.64561875285426
aF203.69009229575602
aF206.33209501443423
aF18.69950948460797
aa(lp19
F227.34960741971193
aF240.72144625729436
aF228.77693241608486
aF241.9259386758823
aF1.0300633214584083
aa(lp20
F154.30861485369948
aF225.7826312454806
aF160.15448521428578
aF209.07527719789752
aF1.5418490620562493
aa(lp21
F156.9142171009352
aF176.90433304511006
aF147.27523070252238
aF220.52506110710954
aF0.27738222528233575
aa(lp22
F157.87096390308633
aF183.70467506490078
aF160.44355865809763
aF239.9216099615943
aF0.193786851140841
aa(lp23
F215.62199565303854
aF227.63105046386872
aF221.05602639641393
aF232.376278633259
aF1.1267569564983377
aa(lp24
F205.34946869158475
aF235.86671917840886
aF209.16757346225802
aF248.08155484903705
aF0.703854285567254
aa(lp25
F191.54541118425044
aF192.90893351685676
aF195.51151504017076
aF249.03269508371773
aF0.00684750735926812
aa(lp26
F186.89872366254593
aF226.51764032829618
aF187.83916584023072
aF218.6223186097497
aF1.3876002801984488
aa(lp27
F219.6870194837026
aF243.10228718228828
aF217.1321570595261
aF242.18070487892757
aF0.8888888897103988
aa(lp28
F217.6441254535093
aF234.09721460625454
aF218.43214254079416
aF243.5898859852317
aF0.6294946896359598
aa(lp29
F168.7518345007318
aF179.53893673261987
aF158.974270531734
aF184.87118862715758
aF0.46012202433331983
aa(lp30
F161.0006513589432
aF245.11263829254804
aF151.52537659579937
aF223.5100661100671
aF1.3845129024296525
aa(lp31
F190.2527830792624
aF216.47963799994992
aF192.85953519910578
aF221.10012202561552
aF0.9617923090013623
aa(lp32
F175.13769358085986
aF245.66401671443091
aF177.52772321127884
aF189.58741620130095
aF7.23064877624416
aa(lp33
F238.75267453592713
aF248.09108511731839
aF230.62778332602707
aF231.46003714606442
aF12.030416620834416
aa(lp34
F210.6161173849876
aF225.3388297327803
aF216.4643466501033
aF237.81454618170756
aF0.6541379499761866
aa(lp35
F160.1665259329984
aF193.91425925141974
aF165.72371067422165
aF175.41821686196252
aF3.687491019261583
aa(lp36
F195.24407556891606
aF244.29586761803415
aF196.04934957314808
aF228.66792450271987
aF1.6659083345391923
aa(lp37
F191.00441358641467
aF205.86928856462984
aF181.10006946411696
aF219.24782316572959
aF0.372817586870263
aa(lp38
F214.2232065099926
aF239.84705089928426
aF216.80743816022067
aF237.48845011924257
aF1.2455856486940051
aa(lp39
F221.89958447838669
aF231.87579570614164
aF213.87829243818666
aF229.66063929353888
aF0.6329484454688422
aa(lp40
F201.98978407051084
aF245.37868464554776
aF206.57285984295643
aF232.6196006413556
aF1.7618896162982445
aa(lp41
F181.70171864510428
aF186.64560605502186
aF172.5684591703467
aF215.1678926683471
aF0.172576206092355
aa(lp42
F188.00546208729423
aF207.69027887654048
aF180.68202945184314
aF214.5907553384716
aF0.6105650148393771
aa(lp43
F158.45541644417796
aF233.47916373724178
aF167.0463777093799
aF194.00088644384454
aF3.231282812214018
aa(lp44
F237.4916825341934
aF247.81261022299813
aF239.52150706499967
aF248.51310035679109
aF1.201363830222819
aa(lp45
F219.0552239322287
aF249.33728041221798
aF226.07641961295656
aF226.6311222673786
aF59.69280541153105
aa(lp46
F226.4086684058497
aF236.88638339643745
aF217.86931536953313
aF220.3036927711219
aF4.500831369363676
aa(lp47
F197.89396643054238
aF243.3430360444357
aF189.37164118901256
aF247.31820918453457
aF0.8917253482304256
aa(lp48
F162.50192804392543
aF224.2868883517874
aF155.70352517400212
aF205.16979374705525
aF1.3744087498198907
aa(lp49
F192.46559837503008
aF222.02638201819727
aF187.27954463889975
aF246.9240178778947
aF0.4160429313807611
aa(lp50
F171.52094348888483
aF220.7410150966269
aF174.0899994504222
aF202.79172967258012
aF1.7411013873960925
aa(lp51
F215.1290651654786
aF231.86421162426817
aF220.2779112223886
aF235.05991549983347
aF1.1970698065635774
aa(lp52
F230.01782858986417
aF235.21546366444116
aF226.59788941918077
aF232.85052356542283
aF0.8242368872268262
aa(lp53
F232.72730388142264
aF241.11912990799544
aF226.84285087992953
aF249.91895107119393
aF0.3528412025974912
aa(lp54
F192.19076611478778
aF212.07028121563616
aF186.4125906953921
aF216.07821972553944
aF0.641825773089969
aa(lp55
F222.70041836413378
aF243.29563355056231
aF220.10439555887936
aF249.9759822963905
aF0.696366717599279
aa(lp56
F169.21466998558338
aF200.12562466055107
aF159.7607946604087
aF176.46957210334634
aF2.0180170153206762
aa(lp57
F202.4493741344525
aF214.8172913031115
aF202.98182355045114
aF209.3024284170389
aF1.9830718143982409
aa(lp58
F216.0120584281636
aF216.4719073108466
aF210.48020299338077
aF230.42430790867783
aF-0.07051293841053202
aa(lp59
F187.3069766614042
aF246.41773230217402
aF184.17251254922672
aF197.655180131779
aF5.27727937396368
aa(lp60
F163.46992237449354
aF242.56132303341442
aF154.41441197263316
aF225.4418977129361
aF1.1441790435440822
aa(lp61
F154.80157298795476
aF242.30900761954643
aF163.88499465003022
aF203.4856246840442
aF2.612488769845529
aa(lp62
F191.18497551308351
aF229.72542055774034
aF200.8503962419088
aF215.6187605068808
aF2.7719124418203585
aa(lp63
F155.9574162722513
aF183.2376574370121
aF149.8608862947156
aF242.80511801799662
aF0.2499801569893771
aa(lp64
F158.00552376281667
aF195.04278113223722
aF150.73780695280968
aF151.4580397494525
aF60.96510364995052
aa(lp65
F198.04676611116605
aF200.1376893043907
aF196.06060813753408
aF228.80479666599095
aF-0.01275572983811852
aa(lp66
F214.29381767391283
aF215.8711231030464
aF218.93779262767217
aF247.01600114351078
aF0.12758264305062703
aa(lp67
F207.83494057257812
aF221.84869506966396
aF203.61670550838198
aF230.47485893717385
aF0.6067021886756261
aa(lp68
F210.93941267786852
aF235.67112308243898
aF219.96365843318054
aF223.14462159891175
aF8.168633705591896
aa(lp69
F196.82490243556947
aF216.31759840646572
aF205.18511719820447
aF214.67867673417973
aF2.0423452976231538
aa(lp70
F216.7064055363566
aF248.30030510439744
aF206.7088820660593
aF222.91307231130077
aF2.1972142832125368
aa(lp71
F205.9703608071482
aF245.40136355699508
aF206.49782319459388
aF239.56733012739778
aF1.3161169530625334
aa(lp72
F198.48239340210893
aF242.08511995106323
aF192.10017910068458
aF214.1301535243488
aF2.2336219945107576
aa(lp73
F154.69232197699893
aF181.49990132521614
aF156.3394756997937
aF233.48831531176475
aF0.3047190499068243
aa(lp74
F155.51039814632728
aF185.3548398815533
aF159.68335696059765
aF159.77710818251276
aF351.9540158631151
aa(lp75
F239.4817279574691
aF248.60374183266347
aF231.78133920841262
aF243.5007681894367
aF0.7506598424548505
aa(lp76
F174.77885562145116
aF180.7743736071407
aF171.0511990387742
aF207.3185795302366
aF0.11036277958181476
aa(lp77
F187.45398368201134
aF246.95344651702453
aF191.26045930779816
aF237.77111953080959
aF1.2864298906877394
aa(lp78
F175.10945335082408
aF181.9309022249152
aF176.0000213765423
aF206.77511574313584
aF0.22114587655983536
aa(lp79
F203.47988751358284
aF243.44505142725208
aF207.11997346123616
aF231.82635193279847
aF1.673742100863306
aa(lp80
F226.17075556931525
aF233.68859590946684
aF229.93768106670677
aF238.0760072628697
aF0.9619936395740789
aa(lp81
F172.20228624642985
aF228.32261652657613
aF169.60222927310966
aF181.65416493143996
aF5.616377248391952
aa(lp82
F208.662844439677
aF211.37357559164374
aF203.01542867937474
aF244.44922006089982
aF0.07674965803027849
aa(lp83
F224.770942816436
aF249.7108707771243
aF215.17702590531528
aF246.36595719143207
aF0.7786277048262524
aa(lp84
F221.98704919328597
aF232.20758485664783
aF228.6837497094964
aF241.77663290272852
aF0.6440436525003496
aa(lp85
F183.89753091035234
aF239.81796294789524
aF177.04736794267558
aF235.93043144657193
aF0.9986999452470822
aa(lp86
F171.47999472748234
aF240.10625369625546
aF180.423191220342
aF182.36546952538168
aF44.23719528082033
aa(lp87
F229.06172699065286
aF243.60917706337997
aF237.37146190707048
aF242.18486485761494
aF2.9998734925781716
aa(lp88
F191.73222624716166
aF215.42318098087677
aF198.0282492313385
aF245.60785591355545
aF0.4313076590538494
aa(lp89
F182.28498936287866
aF225.53916510123938
aF187.15553485102706
aF195.84639099451834
aF5.638811155036242
aa(lp90
F219.93758756158923
aF246.90757110805694
aF214.89898349096717
aF227.76463237639143
aF2.2777628822567264
aa(lp91
F182.93535176070748
aF195.9861000740176
aF177.7984381821011
aF224.1487283497907
aF0.28943275234297833
aa(lp92
F213.6697367747421
aF220.60724289482636
aF204.13951988873626
aF232.6107808057035
aF0.23582028355413814
aa(lp93
F179.1502889335263
aF234.7562998272511
aF174.52752063962933
aF190.871894809846
aF4.035627760084121
aa(lp94
F194.10639096539276
aF233.09719458277814
aF203.96672151626754
aF243.73409982320769
aF0.8761993271818108
aa(lp95
F219.25836960845163
aF234.0274566077022
aF220.48115916966012
aF242.42838298746918
aF0.6972406289063448
aa(lp96
F215.74678584622137
aF226.34379160167097
aF223.7985668386511
aF230.6631923307983
aF1.58015604854258
aa(lp97
F191.5769894293665
aF249.35624304625765
aF193.427944299466
aF196.9032563896847
aF20.383306877265447
aa(lp98
F167.97886127693488
aF245.48516676882974
aF175.84860840704658
aF185.35081394117748
aF10.273473209380548
aa(lp99
F151.1833950918222
aF172.61535921107532
aF152.2070019386453
aF186.744344283563
aF0.637402741846266
aa(lp100
F234.12813156332936
aF241.51706013261585
aF243.061261311691
aF249.4775484947823
aF1.0613049479657106
aa(lp101
F181.97463752532605
aF235.5935554251755
aF186.16820129958467
aF189.66977649639415
aF18.390894500797934
aa(lp102
F229.1843416435069
aF232.00450922717238
aF239.06464939834402
aF240.54893257713152
aF1.8413004475119403
aa(lp103
F153.0930523686471
aF155.5484016996268
aF159.60886918735596
aF208.09111682262332
aF0.07594052275833302
aa(lp104
F226.52313590683252
aF249.66025902241645
aF221.04000866820726
aF221.40109217592365
aF71.56650877082264
aa(lp105
F239.90931777077535
aF244.50275108881374
aF243.71354841101567
aF247.3514142478584
aF1.32467046759986
aa(lp106
F164.996527999633
aF235.67877814445686
aF173.18744197503827
aF211.86177825745375
aF2.016282483730887
aa(lp107
F168.88159567729187
aF212.21746528714843
aF161.3798522922568
aF203.35972362101825
aF1.051446598791646
aa(lp108
F238.9863634147714
aF248.899998106877
aF239.16018657310624
aF239.76193427693383
aF16.99224808422947
aa(lp109
F214.66193309445455
aF215.83942381007918
aF212.89399653806962
aF217.07321075532502
aF0.3434708221267191
aa(lp110
F215.85420714248392
aF218.9493900964376
aF209.22834580019168
aF209.4373406575927
aF15.377150976198878
aa(lp111
F152.15886076678095
aF163.62595194100396
aF142.6630060287002
aF228.92864681088824
aF0.1032539911208159
aa(lp112
F155.97953797548706
aF231.3545210437849
aF151.56028047816164
aF245.7271756866
aF0.7866081726286566
aa(lp113
F208.8085584355037
aF237.0203513208854
aF218.79276946482963
aF243.85575445934236
aF1.1663409931818192
aa(lp114
F217.32285626849165
aF245.34192502449025
aF222.4575446867643
aF237.16196898867543
aF2.043137767070903
aa(lp115
F178.8352845220083
aF223.136890421193
aF180.21661320126142
aF183.83474936709158
aF14.327570322857502
aa(lp116
F162.0867639997293
aF246.74792136999767
aF156.5116124786392
aF221.86217609485138
aF1.367954375337146
aa(lp117
F189.07353512457013
aF192.44974665260003
aF180.59097906896466
aF201.7444761055417
aF0.17072940851331606
aa(lp118
F200.66546941820337
aF208.843480776908
aF197.12993981076536
aF205.4094372190505
aF0.9370220249234158
aa(lp119
F237.00841172593482
aF241.03631753573896
aF241.1309297678028
aF243.72612864093452
aF1.5587414615127584
aa(lp120
F193.1032125307595
aF249.3839603759301
aF188.0046376621442
aF232.99851316869524
aF1.3249506756850058
aa(lp121
F177.0683027460954
aF195.82184491750056
aF173.40812596990307
aF217.32798497655165
aF0.4379441072931837
aa(lp122
F188.44435863617974
aF233.15202093786155
aF188.942767385907
aF239.71945072696542
aF0.9554424134345116
aa(lp123
F179.87876710056204
aF188.07582171396405
aF187.4219641132765
aF192.55224190959063
aF1.6124781103304837
aa(lp124
F225.0398758766266
aF230.3286890602608
aF226.8250479416393
aF230.640462498956
aF1.4224749193602264
aa(lp125
F158.2791783559802
aF213.1901780587484
aF154.224262447071
aF163.12101670311398
aF7.522430005654529
aa(lp126
F199.84757418753577
aF210.2242822198401
aF191.1539611723881
aF243.866554175809
aF0.2588087817432864
aa(lp127
F153.95212534311088
aF192.0745735669604
aF163.61464811163577
aF241.99901020678433
aF0.35034103426527313
aa(lp128
F223.84787123601814
aF249.59526981695132
aF217.04788358288994
aF243.1564679568575
aF0.9686324746151819
aa(lp129
F200.27126361612807
aF204.10606589982567
aF196.19703627246483
aF218.12342958553134
aF0.14497734349508906
aa(lp130
F182.95445908901658
aF210.52752556462843
aF175.44726417161928
aF178.43873244617384
aF10.44397262724894
aa(lp131
F191.7807896483964
aF243.37369424116463
aF185.1987834447397
aF219.6979165762614
aF1.6854979001564063
aa(lp132
F212.77297775396397
aF247.3037522062412
aF222.01174279138638
aF228.0207265584384
aF6.22276378159684
aa(lp133
F177.64938602499151
aF195.71998632687217
aF185.85143689883313
aF190.6440163046003
aF3.8828278658897806
aa(lp134
F177.35247680250814
aF238.7634029150821
aF185.17671026925345
aF245.7148924425943
aF1.0549213418527015
aa(lp135
F206.42428633639454
aF232.64804208081577
aF201.00121171158062
aF216.85683144855318
aF1.861270603520559
aa(lp136
F181.75152327556506
aF231.24238859650993
aF183.45724528977755
aF214.48834950623177
aF1.6351876151686449
aa(lp137
F210.38684562276396
aF227.07950868724777
aF208.25301955171517
aF210.12794092032962
aF9.485726732943219
aa(lp138
F160.72742391208143
aF194.11582541664345
aF167.0759826211017
aF210.62487089359792
aF0.7061671019359181
aa(lp139
F186.99142471734643
aF214.66218837284052
aF180.01367156859104
aF243.29849005835086
aF0.403012957669359
aa(lp140
F158.2567540562896
aF223.1325560326107
aF148.8119688234761
aF193.50584639215342
aF1.6362889061052588
aa(lp141
F225.58826809244175
aF243.62850028156265
aF216.6669325762742
aF229.9413608612138
aF1.506195658468116
aa(lp142
F174.68423600179372
aF197.40461301067015
aF181.78146970364915
aF189.7641178652028
aF2.9386318851281983
aa(lp143
F188.84956399894878
aF230.54458268965718
aF197.10157263380614
aF244.71158805658013
aF0.8128920569641523
aa(lp144
F207.6141983482981
aF221.58269011553153
aF208.46978044123622
aF243.73984973761807
aF0.345045318749785
aa(lp145
F173.0674560089397
aF247.20929141020991
aF175.37524527074027
aF248.1214107995877
aF1.0691835474573337
aa(lp146
F226.06838306226985
aF234.50094691828872
aF223.03585443325213
aF246.23730112170497
aF0.3156207379365094
aa(lp147
F171.284405598485
aF248.61544827881212
aF164.3454568732165
aF186.006101978329
aF4.507740296272913
aa(lp148
F206.99574522038083
aF237.41174965343603
aF201.64001382336878
aF229.3524008811699
aF1.097135805856314
aa(lp149
F187.73457964510789
aF231.24527666674618
aF190.6908668504818
aF209.3675292458824
aF2.581271848095874
aa(lp150
F202.104337697036
aF232.69865418220954
aF193.12647264369403
aF209.53384263762456
aF2.0056202136902446
aa(lp151
F185.13365811143652
aF188.62310638008412
aF186.84459795082265
aF207.37283874772893
aF0.0412188998165339
aa(lp152
F210.5116272565046
aF237.39428233025893
aF203.6923983563833
aF205.43975457449045
aF17.433146563459342
aa(lp153
F175.50295217831626
aF191.51310345765063
aF175.3078641812885
aF201.57228606824353
aF0.5974315118933267
aa(lp154
F165.82382793684368
aF242.82195667376354
aF155.94729255715384
aF183.50184972857204
aF3.5574998822924466
aa(lp155
F182.77320348997503
aF189.5423913189409
aF188.89900040729614
aF230.98895644210933
aF0.15078160822656547
aa(lp156
F176.60090406401437
aF230.63286446893798
aF184.66222668314552
aF219.09717673903586
aF1.7329080203388834
aa(lp157
F182.63440487753053
aF218.84816753532084
aF185.46286663647527
aF215.17161310183172
aF1.2226749456086732
aa(lp158
F230.69580198763964
aF248.77828569575217
aF237.903149583224
aF244.03521092086078
aF2.9652346028445282
aa(lp159
F189.2547744328868
aF221.43459829008748
aF184.29237751320062
aF204.35120265739243
aF1.7982658031547976
aa(lp160
F229.51831019671403
aF245.30551183454335
aF224.36696770543728
aF230.90998449070756
aF2.604805258492222
aa(lp161
F232.34367527288288
aF234.64384089787634
aF229.0475189927646
aF237.71944698948744
aF0.27318298468156227
aa(lp162
F227.62467643086327
aF240.94821415660707
aF231.53218173530016
aF244.09323559769848
aF1.0691978966508615
aa(lp163
F176.80981550262823
aF233.46859578519124
aF180.94044221662404
aF190.87801441511843
aF6.716742181500064
aa(lp164
F163.58880376032747
aF229.13924788816053
aF169.05451014318572
aF220.27087090055937
aF1.2523512308592506
aa(lp165
F177.38226634261022
aF187.08461784840955
aF186.12169221780334
aF244.27463648358707
aF0.2681148126961509
aa(lp166
F196.90184748406264
aF208.58324492383457
aF189.79955092760073
aF216.65220431604072
aF0.49028132820791515
aa(lp167
F221.39002955226232
aF231.73307105659092
aF214.84111874033042
aF220.03561896756557
aF2.0679611549065227
aa(lp168
F224.4783059954315
aF236.021278701529
aF229.739025115507
aF244.95060156366364
aF0.6954217096032098
aa(lp169
F219.77226245454523
aF238.842014951716
aF214.69234911759958
aF226.32157345668296
aF1.6764639253593367
aa(lp170
F205.51958435283913
aF213.11392457710843
aF198.41474230126434
aF224.1249741040108
aF0.30943089114393385
aa(lp171
F167.25413108730234
aF244.854896687282
aF163.52204665900425
aF220.19541240619463
aF1.462002807834587
aa(lp172
F204.61109327009464
aF218.67933664803587
aF203.18909203286682
aF203.97796258972113
aF18.881537961551434
aa(lp173
F160.92590515056324
aF175.0133229723714
aF152.79299832852905
aF189.16846330211885
aF0.33879233808557846
aa(lp174
F238.70659956619957
aF241.41528887695188
aF235.54804979671414
aF249.39289823358894
aF0.20062535617087057
aa(lp175
F186.36798409635662
aF202.5402033118223
aF179.6155315742552
aF235.98359094038653
aF0.26607429374900643
aa(lp176
F161.66793919099572
aF191.22128985727454
aF153.88548691028635
aF216.25714815804432
aF0.5160008047763688
aa(lp177
F237.1374061057579
aF246.35328973378756
aF245.4562504983412
aF246.52466154038353
aF8.645880268193789
aa(lp178
F228.94884700210773
aF231.3336858175793
aF227.02327520632787
aF237.37328440143588
aF0.25179029259993635
aa(lp179
F202.24050491660574
aF239.34612265259565
aF203.91591042784685
aF249.23733714877716
aF0.6666423968284
aa(lp180
F239.06762660954627
aF240.77733903682858
aF242.2790885749498
aF243.93872653257853
aF1.026198418475568
aa(lp181
F214.0093855150863
aF241.6050069665947
aF210.50662359044895
aF237.60343228253137
aF1.022200659945522
aa(lp182
F219.1328257029028
aF225.0448578963102
aF216.05820813970544
aF235.2127479450092
aF0.27907577144997525
aa(lp183
F205.85883263749025
aF231.288171220033
aF207.09927849863277
aF219.55730839292124
aF2.2567161318176674
aa(lp184
F225.56613459421374
aF244.30626809052663
aF227.29368322274206
aF241.9684761186651
aF1.2191258002364256
aa(lp185
F212.00733890470062
aF236.77338802794597
aF217.60699151918803
aF225.41869465218568
aF3.3219464830227023
aa(lp186
F190.88638540790186
aF240.25018896804326
aF197.32786149376204
aF214.63596312858968
aF3.2215832103492335
aa(lp187
F175.643088544007
aF187.57943949480784
aF176.99255734357095
aF185.12303126000523
aF1.4129046807013292
aa(lp188
F180.77098972547682
aF194.35772186296037
aF185.6497852540649
aF242.10458910089676
aF0.14661231158734112
aa(lp189
F235.9147849824898
aF239.5127470916002
aF244.01012203483208
aF246.7159856838532
aF1.3572036088652477
aa(lp190
F189.26860047508342
aF224.92381445393627
aF183.5634395533854
aF241.6128570467172
aF0.5806827990055516
aa(lp191
F216.81948738155418
aF221.29485131994107
aF221.76688312740842
aF223.42612135725687
aF2.6968475901040994
aa(lp192
F213.42415739635172
aF249.7273158154585
aF208.75412745752095
aF219.26568567571212
aF3.9102617496202017
aa(lp193
F210.9686748220418
aF232.9563211200841
aF209.35468246447002
aF248.3342496007869
aF0.5710541822349441
aa(lp194
F235.62164393976724
aF242.93638776508388
aF232.47876239106733
aF249.95273106316566
aF0.3724620371692945
aa(lp195
F220.90929185485675
aF242.61082478684912
aF226.6281518084969
aF248.2869685391877
aF0.9710811675673203
aa(lp196
F159.86024340798562
aF190.49261292455884
aF156.86632908299993
aF180.28541338349743
aF1.4612044576827483
aa(lp197
F188.12663262530376
aF220.80320965995116
aF183.28110974052012
aF245.24852271244916
aF0.38370188203858346
aa(lp198
F229.65092574794693
aF244.48387547149076
aF232.95150724461163
aF241.98904853386784
aF1.6204730516287682
aa(lp199
F239.6286995880599
aF249.21657403372927
aF241.69685498458304
aF245.44305557600964
aF2.4948200826507922
aa(lp200
F196.83959120130208
aF247.65631884399795
aF191.51491655202122
aF205.39133578358533
aF4.276631484882782
aa(lp201
F178.21564191438623
aF212.83555595436928
aF177.60254643776602
aF185.73886121296266
aF4.738519928452897
aa(lp202
F200.2639027619141
aF215.0877581146846
aF203.2005979349503
aF233.6484915613972
aF0.4399108927282386
aa(lp203
F182.38713713671964
aF200.90137007803474
aF175.60749202122815
aF229.46857777313235
aF0.2623325451553714
aa(lp204
F227.17173288206325
aF241.625470980616
aF225.61312083045195
aF241.28850256262078
aF0.8748932804982776
aa(lp205
F180.45028435776373
aF205.32506828931508
aF183.41286016308473
aF216.19990783929842
aF0.817805596998852
aa(lp206
F207.2096219848117
aF247.501230975875
aF199.19090273664887
aF224.92263162411666
aF1.6342983868350967
aa(lp207
F198.9767905501837
aF205.55703454690072
aF192.88114287198698
aF214.0580643796138
aF0.27833427984366677
aa(lp208
F220.62926562406756
aF248.9980577914857
aF216.04769374119311
aF246.01560618541373
aF0.8972973984265583
aa(lp209
F209.61577896386152
aF220.5777260431659
aF205.92463340199146
aF233.62761611009626
aF0.40715307378364307
aa(lp210
F174.09327611586573
aF233.02998011219665
aF183.9165355981255
aF196.4990101049335
aF5.475012967521903
aa(lp211
F239.60653647143093
aF245.3132080723258
aF239.6175165449169
aF241.67359336682412
aF2.838897517112709
aa(lp212
F166.68157285140651
aF180.43847881490993
aF165.020588732957
aF207.83483843470066
aF0.2658321286995773
aa(lp213
F162.66027012880255
aF230.42922561401218
aF154.92749190993746
aF242.17240889065647
aF0.7350946768451189
aa(lp214
F197.38031641355514
aF249.3019088923653
aF199.9362331178546
aF249.4224000906893
aF1.0668320082515959
aa(lp215
F202.308634241199
aF223.5147913247933
aF196.50467232111401
aF220.35373099649195
aF0.9425648373778868
aa(lp216
F195.4602343899697
aF211.4755858396976
aF194.14995275428015
aF228.17389842639517
aF0.3884178959121859
aa(lp217
F182.94363178454373
aF212.43109680557373
aF190.82509771005044
aF195.55230003639187
aF6.709382378595544
aa(lp218
F236.45438760358377
aF243.92403375234
aF231.36173993720212
aF248.73766538079502
aF0.46475684083032776
aa(lp219
F180.2759671397956
aF227.5387283498153
aF187.1372284216772
aF230.7222420193165
aF1.0380408690393628
aa(lp220
F200.55607507446473
aF207.60654300107416
aF200.92665939083003
aF212.25201476801382
aF0.5918749266185708
aa(lp221
F200.91781988771575
aF230.70705932330816
aF199.95014089769975
aF218.84400640435683
aF1.5685282986649147
aa(lp222
F174.03286343729377
aF224.85160505835614
aF166.8566193226226
aF184.43344278912377
aF3.4199540030866604
aa(lp223
F151.84947606953952
aF161.043293837283
aF158.212512810057
aF218.4642132574516
aF0.18949853271770495
aa(lp224
F173.33852184589745
aF213.77554566395645
aF179.78247588206605
aF227.8952540283881
aF0.7321526607102593
aa(lp225
F224.23836501503672
aF233.34001050651307
aF223.37990234062235
aF246.23871130618028
aF0.4158752480228027
aa(lp226
F188.02167055470915
aF246.3228394668734
aF181.59047274811815
aF194.91784589267712
aF5.310269544354915
aa(lp227
F185.00320873209978
aF207.7453495313984
aF184.78562869389887
aF213.2350634087173
aF0.8824343773657166
aa(lp228
F220.22001134406827
aF221.30684881377314
aF221.48521722810588
aF237.762295253643
aF0.09514373403003688
aa(lp229
F153.82250321962337
aF217.60684730261542
aF161.61265699882233
aF232.597369475305
aF0.8056743684244965
aa(lp230
F152.5094574929815
aF207.6179577623584
aF160.59343572951454
aF211.00033311607382
aF1.1166204975856353
aa(lp231
F175.97489211785515
aF189.3619293422495
aF181.39861556390645
aF184.4858503765971
aF4.451829910120791
aa(lp232
F176.69047706229216
aF212.05296159529917
aF171.86628491693963
aF188.09192615049344
aF2.3728116344773826
aa(lp233
F213.21908355843516
aF238.93843881876995
aF213.54250451655653
aF222.3027544313042
aF3.2123453289496404
aa(lp234
F185.6094552358656
aF208.5236720713111
aF193.77458354574378
aF203.80446412627273
aF2.260031299486961
aa(lp235
F216.36424996216755
aF242.58000710142778
aF213.0225076242941
aF232.26659966081994
aF1.4542200755667156
aa(lp236
F204.17269136727444
aF209.09123361802918
aF206.97034454776707
aF242.8968534363177
aF0.04523754135354789
aa(lp237
F232.7000980596001
aF240.1721173854422
aF240.29670130530093
aF245.19699688556412
aF1.509801918354992
aa(lp238
F226.28771133397345
aF243.938485206158
aF223.49998351470458
aF223.81516697001896
aF60.67106824577421
aa(lp239
F221.73200480480313
aF240.64448814589892
aF211.95114216804595
aF220.1390851655543
aF2.522370758844512
aa(lp240
F201.09894238456874
aF221.7074269787058
aF199.50631402943623
aF237.3455928263616
aF0.5105992803485151
aa(lp241
F171.76267913609718
aF171.92283558766493
aF170.00672397843607
aF218.09943724003122
aF0.04442244027142836
aa(lp242
F158.10742942032135
aF188.8270292156641
aF155.18538935757277
aF227.90339283815456
aF0.2825779826921345
aa(lp243
F163.57448986905487
aF230.50651930872334
aF165.20916552504784
aF231.58537564540592
aF0.933250055675875
aa(lp244
F201.31148037874934
aF204.72020664661315
aF192.06956771975658
aF239.62704227822223
aF-0.0037656228955665477
aa(lp245
F188.3501104233513
aF224.10449480811707
aF182.93705115837489
aF216.66813328453503
aF1.098796370869894
aa(lp246
F172.29062824762957
aF181.0756384160764
aF181.11875558278405
aF242.60515478384545
aF0.10619136085743328
aa(lp247
F159.31794126327927
aF199.04672831004785
aF164.47488025694764
aF187.6433412326722
aF1.8301987939496365
aa(lp248
F202.01427762310652
aF222.91327457606326
aF199.6101474168504
aF204.69124722565294
aF4.42107682798831
aa(lp249
F165.71893030418445
aF180.6615381930339
aF166.44752119178102
aF186.63537058909657
aF0.7802622419116325
aa(lp250
F160.09806378410582
aF236.395901286587
aF159.21276701454303
aF187.30415803493176
aF3.2778776503346174
aa(lp251
F207.96436353560603
aF235.60855205187818
aF200.51548034925915
aF225.1697582050973
aF1.2286998509628848
aa(lp252
F182.2499543986386
aF215.69689806865549
aF177.62323869783978
aF215.65583848140167
aF0.8140210851780563
aa(lp253
F198.59215989485062
aF231.3236663579893
aF197.1468503588852
aF245.5663594205045
aF0.6439738078196057
aa(lp254
F224.31670253551346
aF245.23666804017125
aF223.5375068367939
aF243.65052535060457
aF1.0627430209108546
aa(lp255
F232.19713648139412
aF248.0296643520797
aF236.8392282202723
aF239.33896760265458
aF6.491465694430667
aa(lp256
F194.59415836578924
aF195.02511631534324
aF187.75063635527115
aF235.88721566555736
aF-0.05659861147887234
aa(lp257
F193.63995585001325
aF226.7900420106071
aF186.5719436783166
aF240.8072457478468
aF0.5115992280783791
aa(lp258
F215.6276218164592
aF230.9539577119281
aF215.32135349001038
aF245.97568965414808
aF0.4197597729467132
aa(lp259
F234.72653083735702
aF246.4340829203792
aF241.1152114297417
aF245.59363276566705
aF2.702121402365173
aa(lp260
F203.22258630369092
aF237.85237071187288
aF200.0393630053747
aF226.22284616789105
aF1.3404651958122407
aa(lp261
F223.44776321888767
aF236.16265324358963
aF223.58869828356796
aF235.02320949163428
aF1.0714577586788616
aa(lp262
F216.4948141496958
aF217.3874906809189
aF220.07243523219023
aF238.1323889870263
aF0.05143244869879907
aa(lp263
F216.20586223463755
aF236.64613581431155
aF214.43091518055218
aF244.27526797336586
aF0.6330843951512073
aa(lp264
F154.1470709525586
aF249.6300489968242
aF153.06125887345837
aF249.1390675578338
aF1.0172470572897934
aa(lp265
F193.01364891347936
aF211.10531534091103
aF196.5408568024353
aF233.9964547382338
aF0.4553072793634366
aa(lp266
F160.73402240424244
aF215.62240886270422
aF163.33538795744744
aF235.65607864323076
aF0.787057781544532
aa(lp267
F159.25083203650004
aF203.6804491398732
aF155.46429433643857
aF199.66299621895033
aF1.060588655750984
aa(lp268
F188.6421310269925
aF192.63381916468384
aF189.83237208915978
aF224.84381774743827
aF0.03113887596371523
aa(lp269
F237.31513746005265
aF248.36666838193742
aF232.3925905082266
aF236.24612794873565
aF3.009183832279193
aa(lp270
F186.04335783611987
aF205.38471073363587
aF183.86549945075006
aF188.9491535956093
aF3.953400508432252
aa(lp271
F152.97024094749287
aF171.8680690308516
aF150.91792255688833
aF178.0482098811595
aF0.7682496334459468
aa(lp272
F192.62486996312617
aF209.9357161147243
aF184.88484920313127
aF247.16274887451476
aF0.1985214318157287
aa(lp273
F226.61529791470423
aF234.4276268816952
aF232.63809231456545
aF239.10569635067355
aF1.1819452348604156
aa(lp274
F187.7312668775221
aF247.84539452369123
aF195.34953026904975
aF220.5534392916989
aF2.6655116479831364
aa(lp275
F182.40961477907854
aF231.20059778927748
aF176.75189751547262
aF225.20022863712038
aF0.9125584628077882
aa(lp276
F207.61399545669406
aF210.88460674399983
aF215.38089294796157
aF216.53115963165305
aF2.753089986702883
aa(lp277
F153.40736778310702
aF201.05360254522904
aF151.172627675039
aF216.0573472236163
aF0.8033413535247497
aa(lp278
F210.78841262405763
aF244.20119558256184
aF217.82671698476207
aF230.3102075713684
aF2.857031847343872
aa(lp279
F216.9799175880476
aF217.38250934096465
aF219.20131908375598
aF243.11618906433537
aF0.06501418602767733
aa(lp280
F224.3117547497372
aF245.01069290167808
aF234.0930022792416
aF241.53761997631815
aF2.8751469243800316
aa(lp281
F222.49016678032422
aF239.76103186189786
aF226.56883335518395
aF246.5097181346014
aF0.8808171610645814
aa(lp282
F216.1153985071831
aF236.7469878581483
aF209.99218206740932
aF217.8630709328694
aF2.842923210369617
aa(lp283
F230.09649596008455
aF248.19148464987046
aF230.6762348588135
aF238.6225790353616
aF2.3307223154264407
aa(lp284
F171.05450072094112
aF204.02616099943225
aF161.3925260469238
aF198.74556217811477
aF0.8894525521623952
aa(lp285
F179.01347961217567
aF223.7837927263002
aF174.17826031456525
aF215.257310886577
aF1.0984904990566955
aa(lp286
F200.09152897726057
aF218.5472532523508
aF196.61847640468315
aF200.07494803776524
aF5.793874647584952
aa(lp287
F209.8410640134827
aF226.95571215091962
aF217.0816011183456
aF249.59178222975225
aF0.4141648176427104
aa(lp288
F231.98841970993635
aF238.36883719169037
aF240.78889126850407
aF243.87739492164195
aF2.0192249861719946
aa(lp289
F196.57904590729976
aF198.8822720427244
aF195.9911524693555
aF243.92175646371854
aF-0.0008617145637192028
aa(lp290
F207.74731828430728
aF239.5545327558388
aF212.98600649937606
aF232.06699469558754
aF1.7219752044827765
aa(lp291
F162.32025031236913
aF186.55665693514692
aF156.95045269228987
aF242.02421142872646
aF0.21456494010536853
aa(lp292
F173.20015386786014
aF235.67257884748938
aF172.03047245930833
aF232.82075462912138
aF1.0234960045223285
aa(lp293
F174.51710753169746
aF186.11332973742384
aF182.59094055995266
aF188.7931901832716
aF1.8931194355044865
aa(lp294
F224.9016372981769
aF238.14588789898238
aF218.3673406500238
aF247.80831705186029
aF0.5021782152546198
aa(lp295
F162.67123339654063
aF208.92109354358175
aF154.5142688309659
aF221.46017911571354
aF0.6554852335664162
aa(lp296
F238.45414653487904
aF248.53985473344912
aF247.76537183624455
aF249.3590269563394
aF6.22688371990347
aa(lp297
F195.8371511453753
aF242.13604391136528
aF188.2300346840438
aF193.74333322358765
aF10.072853560928278
aa(lp298
F219.96514198384352
aF228.38108383658073
aF212.9976085981133
aF225.97586540937442
aF0.6312750744016618
aa(lp299
F237.44860119727525
aF244.03507753309253
aF243.9764731073785
aF248.14150916884688
aF1.5990901052755802
aa(lp300
F202.1370826964403
aF246.09491629037908
aF196.7693325495107
aF204.71289248013923
aF6.472912727023701
aa(lp301
F172.24495512120964
aF176.1858464402706
aF172.197897561166
aF178.8082332905202
aF0.6016158134657872
aa(lp302
F181.1208775017281
aF233.25240741412642
aF189.41767048980716
aF198.96212167551872
aF6.165898953684944
aa(lp303
F180.57469549984887
aF247.83454804179704
aF181.50019282613545
aF212.77517921703517
aF2.426732142245023
aa(lp304
F235.63839894066672
aF239.00532812941825
aF235.15463598546984
aF242.8696346609615
aF0.42471901876132107
aa(lp305
F236.6951058507181
aF240.51343609012477
aF239.3551978993719
aF245.25357341873294
aF0.6024659303936559
aa(lp306
F219.0044561420973
aF232.06333578982327
aF213.99246310064285
aF238.44938501453518
aF0.42658314627303195
aa(lp307
F172.41382757377676
aF210.02631954871725
aF171.4686635181531
aF205.722165935989
aF1.113656400917351
aa(lp308
F216.68281819041692
aF230.40336671592615
aF206.89591872098015
aF244.54237808695595
aF0.34902766274115143
aa(lp309
F159.82884942968923
aF210.97250565249703
aF161.35482075526951
aF187.3435595128761
aF2.1637159093233773
aa(lp310
F193.72124505487199
aF241.08820711937898
aF195.75536237425214
aF223.83819730858986
aF1.861780921997476
aa(lp311
F194.3844019260923
aF235.27091524635733
aF197.74300960719347
aF237.77754278028038
aF1.0045575481112692
aa(lp312
F238.96471543165214
aF240.24133779464472
aF247.16026791711943
aF249.80436961195207
aF0.508761750515863
aa(lp313
F156.7103200301871
aF209.19767096552917
aF160.63722584668218
aF241.8366073762649
aF0.5270234152047943
aa(lp314
F152.8558368024104
aF211.8565320666882
aF144.94014406856755
aF161.8577904760868
aF4.11487022903346
aa(lp315
F193.8509631427072
aF209.18998026236665
aF189.18360332084444
aF214.68740529318805
aF0.5761812678176876
aa(lp316
F225.35975103692124
aF241.61797023403983
aF221.0014551351952
aF243.94337954748815
aF0.6880977376195062
aa(lp317
F157.60892128877424
aF243.00117725523427
aF152.37649968629253
aF199.60942870515822
aF2.1310021831339303
aa(lp318
F180.51280115852887
aF219.34124649152952
aF188.48123190374915
aF214.32200751944396
aF1.582038960736153
aa(lp319
F184.78547134746947
aF227.07472874855003
aF178.3935810247307
aF236.1607425623198
aF0.7197067770147026
aa(lp320
F205.50190382982112
aF249.92255615278594
aF207.92612326997715
aF211.47434869282597
aF14.600852042231178
aa(lp321
F174.22027823844348
aF224.35424453588217
aF168.5807942996287
aF235.57472614018405
aF0.6972547938734385
aa(lp322
F219.85755409800578
aF229.21525200471797
aF217.58445878545868
aF218.79501550832134
aF8.088261430160337
aa(lp323
F160.4598233709685
aF183.10642568624917
aF154.6099880016037
aF219.53845149076753
aF0.25747671000052835
aa(lp324
F223.8268222879222
aF245.83353617494882
aF224.88347960016205
aF231.34422172679152
aF3.736252563370589
aa(lp325
F210.22141751449777
aF214.54276812936
aF211.220135342042
aF240.9928707925678
aF0.13766082666186477
aa(lp326
F216.99737010661903
aF217.59698116799515
aF215.30446748133303
aF249.6670043613055
aF-0.008370866686124252
aa(lp327
F170.60532472920488
aF177.22957648134886
aF173.05063828319157
aF232.16648474571787
aF0.10754431137511403
aa(lp328
F171.945747096644
aF180.40219008081297
aF171.6937060415247
aF221.02234616993292
aF0.14612520668751028
aa(lp329
F235.07646330115256
aF245.49622084920125
aF237.58616302687744
aF242.96629377957242
aF1.966451390775126
aa(lp330
F208.00181142791683
aF237.90996606324254
aF215.22335610931046
aF233.14840709846996
aF1.7545463107486583
aa(lp331
F222.05396810894072
aF241.6611475917414
aF216.1924980379118
aF230.28658517400154
aF1.4092241902204796
aa(lp332
F205.6864429554147
aF230.6908513146385
aF209.26372362694704
aF222.74913905150663
aF1.9833667953588217
aa(lp333
F216.99308626483736
aF225.29224554273296
aF216.23283177727478
aF230.8614664230056
aF0.6120292451015809
aa(lp334
F212.4804422504078
aF249.5474542520128
aF216.104860644547
aF246.8618270121595
aF1.273437073568551
aa(lp335
F170.1303747540413
aF206.92224759198848
aF166.06374381748745
aF222.33401415746903
aF0.5569935085092033
aa(lp336
F228.20257324278234
aF234.72262459474655
aF229.91804687119338
aF242.91593603467868
aF0.35814433338308316
aa(lp337
F165.65604967867512
aF177.57455524111043
aF156.52598038612186
aF182.51270307369708
aF0.4796716137521778
aa(lp338
F205.23852092477742
aF208.15913042044824
aF196.0738587691434
aF212.54389385130517
aF0.12633972949953354
aa(lp339
F174.3480912861558
aF195.63820692159766
aF165.54300389778305
aF249.5605868760244
aF0.2240582056712038
aa(lp340
F214.8031468474904
aF236.87114389587518
aF206.17409823647608
aF212.8511633430904
aF3.7220860580449937
aa(lp341
F200.47219113054174
aF226.43876404675783
aF206.58132156657268
aF237.2571028003359
aF0.7552109821880375
aa(lp342
F192.14038701430343
aF238.62036875239224
aF182.180081458032
aF204.07237900824123
aF2.428921570381192
aa(lp343
F219.93423021373616
aF248.19924531258786
aF216.99528418737157
aF236.61625992573818
aF1.5655262243244163
aa(lp344
F176.29216038287205
aF245.76496888490067
aF180.50740938819476
aF190.51500438952064
aF8.690170017191825
aa(lp345
F151.21960783059868
aF214.58537282310158
aF143.18749002608956
aF197.7977494015409
aF1.2294814905627345
aa(lp346
F186.34157292807183
aF189.58567683520508
aF193.02823222842383
aF206.8264888666843
aF0.18380567143205623
aa(lp347
F160.49110175225007
aF199.6200933561965
aF150.6329225426207
aF218.8674143836901
aF0.5378403623164439
aa(lp348
F225.08204743125424
aF232.46017316128163
aF217.2128615301803
aF237.50730525185975
aF0.34903799887007847
aa(lp349
F222.7408233657007
aF226.43823055325748
aF215.1984586275465
aF241.31718067793264
aF0.151626703382389
aa(lp350
F194.58183655923457
aF212.99651462415983
aF199.83194815058496
aF212.42727026066464
aF1.453205913917664
aa(lp351
F165.40309245454364
aF175.10450679187275
aF171.74247111202143
aF201.66571062242335
aF0.26797259208643853
aa(lp352
F155.9184580438959
aF245.43636826510811
aF157.83409438657264
aF204.5325959464318
aF2.3578996900386437
aa(lp353
F193.09791930156624
aF219.02838268957146
aF187.02627613109593
aF232.15996777584428
aF0.5957261768333206
aa(lp354
F213.13360943068002
aF223.07847225983699
aF206.40009741614776
aF222.3975264580132
aF0.7511572535794743
aa(lp355
F171.0854040732698
aF186.6115928944799
aF171.8666087361859
aF208.42420858447915
aF0.3469363834346387
aa(lp356
F174.888397642407
aF229.57257155036467
aF182.51157280855995
aF215.98689702285466
aF1.819690675158636
aa(lp357
F167.95485276998534
aF249.71025846332864
aF174.36613039023968
aF224.26623676862272
aF1.853916517442531
aa(lp358
F175.48697615221056
aF212.7932548546375
aF182.6006574317429
aF185.63061717162157
aF13.655236209107125
aa(lp359
F226.93333287342776
aF237.6084981122214
aF234.11403315225454
aF237.0321458630356
aF3.666395038913482
aa(lp360
F226.37044254635566
aF229.4360716671375
aF218.94699653589672
aF223.96926222976174
aF0.6018484732060526
aa(lp361
F235.68168697099628
aF239.25376471866252
aF241.38876061018837
aF244.54596604534825
aF1.103482327831196
aa(lp362
F176.89669136862696
aF248.91784734956866
aF175.05667831505434
aF175.90183720444236
aF113.41497091749436
aa(lp363
F229.78654824210912
aF249.46863055875198
aF233.22680464598892
aF246.8766191775484
aF1.4148943769333284
aa(lp364
F191.48281223682937
aF231.41806285247358
aF186.15715560525507
aF187.99845700638076
aF25.689777777871907
aa(lp365
F228.86636994827845
aF238.41851892092882
aF232.88975159005994
aF234.06028176192314
aF8.27655769020116
aa(lp366
F212.39974639244602
aF229.01050887904353
aF206.0087992465601
aF240.61951885996922
aF0.4288129527328288
aa(lp367
F216.98821870911536
aF222.08031967230124
aF208.52729919801786
aF241.37383279352937
aF0.10504549413111267
aa(lp368
F151.17980327960518
aF168.75465799665963
aF141.73609356247994
aF209.07858301054685
aF0.15190459997401023
aa(lp369
F151.45964660575407
aF158.18989742799548
aF151.7692935517793
aF214.44912616836177
aF0.08346541229451729
aa(lp370
F214.68671170365673
aF224.7630311185683
aF208.61904314336417
aF211.95926469402812
aF3.1913203077996
aa(lp371
F209.33383398738022
aF238.73905222179042
aF219.17908918943203
aF239.51934518500718
aF1.4092512759824598
aa(lp372
F160.70603120259605
aF195.92053972404207
aF166.02268551219524
aF210.8989320661176
aF0.6995411097290533
aa(lp373
F215.1991866604929
aF245.8844750330021
aF224.35459214322083
aF244.3870764735677
aF1.5022712818964918
aa(lp374
F208.06521337662218
aF237.2863661880347
aF201.29154565680471
aF246.52120760714826
aF0.6250280884825931
aa(lp375
F167.05777541195144
aF205.39923887027942
aF166.88877674040975
aF238.97301812090979
aF0.44269742709742016
aa(lp376
F219.5581366881114
aF242.9513128359341
aF222.32441193698116
aF239.1192788952942
aF1.4220367184081453
aa(lp377
F213.18849757433927
aF239.83993276016287
aF209.83054715654035
aF231.49547201993468
aF1.2918515517128086
aa(lp378
F215.88277640423036
aF244.96541731962486
aF216.09471007829697
aF232.4218418346744
aF1.85218682362688
aa(lp379
F162.71929539602112
aF185.65930106481662
aF159.17599064462456
aF195.04247785133865
aF0.5984123031776467
aa(lp380
F197.94463024459947
aF212.79489866449651
aF199.6329923066831
aF217.75981381599996
aF0.804596456928579
aa(lp381
F190.46026208704433
aF220.26973532765362
aF192.92526637765948
aF222.72656889427543
aF1.0340623692356632
aa(lp382
F206.52377952944346
aF248.9082258237647
aF214.96503533603615
aF248.96386910874318
aF1.277405371595518
aa(lp383
F226.36104119022374
aF237.0800731519432
aF216.40287958430844
aF245.45331654713087
aF0.3778330232704918
aa(lp384
F166.99352827284758
aF204.95799861752775
aF166.31162391592395
aF182.10913356488004
aF2.633759124917003
aa(lp385
F198.885447713715
aF232.15567428785107
aF197.51650722410537
aF230.11391226355738
aF1.069897455765978
aa(lp386
F171.20094772478322
aF191.44456028095215
aF172.0470900849438
aF249.17800998013297
aF0.2758376662945404
aa(lp387
F170.26418195041862
aF171.37559944190522
aF169.34418384712635
aF185.23004320968968
aF-0.013802630825558507
aa(lp388
F191.84163620109678
aF235.17891892054337
aF200.3032116838263
aF237.35115575462189
aF1.118835617754676
aa(lp389
F209.09185222687893
aF248.82268361771986
aF210.40405085420366
aF226.42167154169772
aF2.7501141094782975
aa(lp390
F190.81601455658972
aF213.60405366232166
aF189.5337258882572
aF194.52737169161966
aF4.963241528094817
aa(lp391
F186.339468477796
aF215.992812108698
aF196.21523152856577
aF227.77346981895778
aF0.9204862221600452
aa(lp392
F188.26662646113024
aF199.8582452107104
aF185.77731550477026
aF221.1634196138581
aF0.28502420792601874
aa(lp393
F227.84320704867773
aF240.04489183162855
aF218.3284361125205
aF233.62668199937005
aF0.8723582073630991
aa(lp394
F200.01443541241267
aF242.27344167723678
aF192.5021443453268
aF222.0940636313115
aF1.5203307326600322
aa(lp395
F151.72837318677455
aF224.06792758027663
aF152.47913382366136
aF225.90812438137894
aF0.9703410427581026
aa(lp396
F182.02910084138537
aF209.61911100403378
aF188.278235496976
aF215.1153032404321
aF0.9749709946102604
aa(lp397
F188.3036965765778
aF203.3705301500543
aF185.9411864037064
aF216.42642139418675
aF0.4658235796688006
aa(lp398
F218.45631960173773
aF224.66461897381544
aF219.0184835174851
aF219.16177650297476
aF44.326000389377135
aa(lp399
F227.26620378557675
aF234.0781437667432
aF236.3807128165731
aF236.51033805623769
aF51.9972502957955
aa(lp400
F155.8536325101326
aF160.8818448857185
aF157.69935202328745
aF167.45972914678376
aF0.5264818087296926
aa.