(lp0
(lp1
F153.12548955204733
aF182.42691565763144
aF27.565788361665717
aa(lp2
F212.52408493485186
aF243.67889583874927
aF76.97464954068926
aa(lp3
F230.5334684051063
aF233.70752307471798
aF6.746445387422141
aa(lp4
F180.21647973879914
aF217.26835895944328
aF67.79898824846775
aa(lp5
F190.66517816459654
aF243.54573371612335
aF124.21190341525451
aa(lp6
F157.5268634413898
aF218.3112488202139
aF113.90675268889491
aa(lp7
F238.35437326005695
aF240.94790212221878
aF-1.5068015925018434
aa(lp8
F182.79465977872218
aF231.43552229919925
aF103.08850831792314
aa(lp9
F180.82561466737673
aF183.94546190662368
aF1.6579646120183198
aa(lp10
F174.36382997948107
aF180.22138547175706
aF0.8135973068363729
aa(lp11
F170.15447728666675
aF171.33586565854577
aF-1.3981205658196467
aa(lp12
F235.00181074891435
aF242.48207625229207
aF22.197685895805055
aa(lp13
F176.92504890974317
aF242.54010021043362
aF151.45204556056703
aa(lp14
F239.74316165260552
aF246.8792412594526
aF20.7018049734057
aa(lp15
F167.6324538765102
aF217.04215364000913
aF82.70606535300608
aa(lp16
F195.08535652006358
aF231.80010658071487
aF80.68023861864444
aa(lp17
F167.3692265068298
aF188.1086331107653
aF26.91149665013021
aa(lp18
F173.08998410438255
aF246.76325558368052
aF183.04817382255584
aa(lp19
F172.44014806596834
aF220.57521520049934
aF94.22564617771158
aa(lp20
F155.26501281177312
aF160.14503232379414
aF5.6068037332879355
aa(lp21
F189.73737500908865
aF193.21276140015632
aF3.286133999586098
aa(lp22
F184.49230469228314
aF248.61827119755796
aF158.66723376026513
aa(lp23
F224.93177070303562
aF225.86678941570378
aF1.507508797764355
aa(lp24
F172.6981927408176
aF220.14998511049782
aF76.89239266891906
aa(lp25
F204.64633316008403
aF233.5021874039545
aF57.20375627387692
aa(lp26
F186.02903708341213
aF248.34938875448165
aF149.18194331855491
aa(lp27
F222.57968933177568
aF245.21893442462746
aF53.454318860076846
aa(lp28
F211.9350194866706
aF227.79185474962722
aF35.55930434009576
aa(lp29
F234.01046336088302
aF249.47622907047017
aF40.94866156513873
aa(lp30
F155.81554484942694
aF229.02085566281784
aF151.32649189342777
aa(lp31
F182.32852941573537
aF183.69052659379096
aF1.1157126386767704
aa(lp32
F179.7938696108054
aF217.4790368270127
aF70.43922019695302
aa(lp33
F161.66291481855276
aF210.4412347421167
aF86.4367116739769
aa(lp34
F231.65796749653566
aF248.3548317167354
aF43.30529039332927
aa(lp35
F205.40094605689188
aF206.014364893433
aF5.995873022328004
aa(lp36
F194.94743017632612
aF202.0662321575764
aF1.7398213038307375
aa(lp37
F209.43359159191405
aF214.49219906185664
aF7.521650006627368
aa(lp38
F229.70137793767785
aF232.6921518049482
aF10.68274223421273
aa(lp39
F204.8580931513966
aF229.57119592052726
aF54.548306174762196
aa(lp40
F233.33079574437852
aF239.9594807215226
aF8.756804792294172
aa(lp41
F164.39660439659144
aF187.5716421316806
aF32.58060171815164
aa(lp42
F212.0699655410046
aF239.82183372461992
aF70.51533331660005
aa(lp43
F165.74645508263094
aF167.65614929906621
aF8.32290208430258
aa(lp44
F175.1702856473684
aF178.89419573229887
aF7.343859086342805
aa(lp45
F180.3215213205082
aF215.32008175273126
aF61.43888748043758
aa(lp46
F217.50685866226132
aF225.20146401867592
aF16.060768531848037
aa(lp47
F239.02607687518
aF242.0351854990352
aF4.878961728246946
aa(lp48
F229.86426673629347
aF235.69616261643887
aF14.737643681524766
aa(lp49
F153.46524073908247
aF154.23574412515225
aF3.306307803103572
aa(lp50
F202.34570168626675
aF244.8067042313635
aF98.92170195234416
aa(lp51
F164.11032921019418
aF188.4410360212731
aF38.193595125229876
aa(lp52
F161.83080846497938
aF237.49471839483425
aF168.7323730512065
aa(lp53
F171.42443873481835
aF183.35384308748067
aF21.242031302589048
aa(lp54
F222.59325222384552
aF237.0111347516058
aF34.699825840171705
aa(lp55
F150.7502223511771
aF156.93295114807464
aF-6.044780812129056
aa(lp56
F225.051270154573
aF240.95551868614368
aF22.54162590811005
aa(lp57
F159.14889440007934
aF163.87420111956595
aF5.290447735697593
aa(lp58
F238.13943335853938
aF247.07706416839844
aF10.601331593803774
aa(lp59
F226.50602958087077
aF247.3516560897957
aF44.53721735612923
aa(lp60
F239.95536180999596
aF240.55189444608862
aF-3.8362952194979165
aa(lp61
F151.71960860992513
aF247.45208117066358
aF230.84872909778403
aa(lp62
F194.59301307556842
aF239.68268810546311
aF104.12437889969213
aa(lp63
F202.30246482613816
aF217.64678263414723
aF29.480606635420504
aa(lp64
F192.59754595892764
aF209.02493115371286
aF28.585569537478218
aa(lp65
F212.69200230974724
aF224.53746571756477
aF21.931698589307224
aa(lp66
F225.7325145415728
aF246.2918613180618
aF53.13605810327614
aa(lp67
F218.83320873932047
aF234.56956707688943
aF31.506885434009195
aa(lp68
F192.16389788349005
aF221.45825730965745
aF61.860136845294775
aa(lp69
F163.16291359562925
aF218.85693791163325
aF110.13307991628832
aa(lp70
F210.24256227167882
aF231.18001321916736
aF47.11489274843716
aa(lp71
F203.73701031782883
aF236.77725946795618
aF77.56126143836951
aa(lp72
F208.11433888417264
aF221.27682140361443
aF26.90164863873515
aa(lp73
F159.55299483624603
aF222.32179193260146
aF125.17439853092218
aa(lp74
F181.0574581167495
aF246.18077558605597
aF153.00103384429562
aa(lp75
F223.92501748016485
aF236.6800756842002
aF30.9407457777402
aa(lp76
F199.22489724529154
aF234.6438073104235
aF68.42691137510656
aa(lp77
F224.2485310428484
aF246.5681590940858
aF49.96758058192796
aa(lp78
F226.75317164478562
aF244.75283300498486
aF48.65433892430014
aa(lp79
F161.95694797787067
aF171.52917093655228
aF11.865363183991157
aa(lp80
F208.53573951430616
aF238.58407947494894
aF76.24344350073439
aa(lp81
F189.85083361063562
aF216.51827491884816
aF42.55024388310053
aa(lp82
F195.88670744173297
aF230.3079106405165
aF72.64007426547356
aa(lp83
F150.95690793104876
aF236.44137164209195
aF184.07763647570508
aa(lp84
F178.4664583910736
aF187.9655534438608
aF15.688071285210793
aa(lp85
F223.62179238028097
aF248.13061755048182
aF62.540363380114535
aa(lp86
F209.82234057720586
aF244.36480128203033
aF90.95557033405744
aa(lp87
F214.12718113991718
aF245.89885163792002
aF70.64788213812241
aa(lp88
F230.79634865279775
aF248.87866511233005
aF51.59738496846525
aa(lp89
F166.83381074419395
aF212.8434671568684
aF80.11569088590788
aa(lp90
F215.6154468507538
aF229.4405430179704
aF16.874668633003658
aa(lp91
F213.21694184134637
aF246.93818950267863
aF70.02364334316118
aa(lp92
F212.32396345340908
aF244.26979443953408
aF83.96938169187003
aa(lp93
F173.19906630529658
aF223.44924181533207
aF92.5516895982789
aa(lp94
F218.29264913360845
aF229.06292043285396
aF22.045321460573525
aa(lp95
F173.3711443415343
aF217.02708233351427
aF78.48840419433735
aa(lp96
F226.752998995699
aF238.17641967620793
aF17.0282467002151
aa(lp97
F194.87988940826003
aF248.61817636069705
aF128.9003552211789
aa(lp98
F202.08553992509331
aF207.66755726414823
aF6.165703914917317
aa(lp99
F207.81695212690238
aF218.06101606386704
aF23.79033225359402
aa(lp100
F236.09682685568418
aF238.3565106784021
aF6.988936910173061
aa(lp101
F239.4149346650197
aF239.9616173757201
aF7.218957106145302
aa(lp102
F198.7975941973457
aF212.90273603754883
aF16.405231969365254
aa(lp103
F206.80559057420166
aF219.63383859656747
aF29.116435812200216
aa(lp104
F183.42187908107712
aF186.466161146833
aF0.9518360793585501
aa(lp105
F155.61323346761864
aF213.8609010882464
aF102.45965715543157
aa(lp106
F170.91608211885304
aF186.00098111465672
aF17.902565640050994
aa(lp107
F191.98113968741416
aF209.24186748884608
aF36.8196513125477
aa(lp108
F221.64918405537898
aF247.53857216170724
aF67.17389158656418
aa(lp109
F186.0594935760613
aF188.39591355449886
aF3.9779627149483634
aa(lp110
F214.9803348919791
aF216.18283875192714
aF1.0955377674895512
aa(lp111
F236.73481118006313
aF237.21778817395932
aF-3.728882913653772
aa(lp112
F232.35381855370827
aF238.83324265852025
aF4.381718521714168
aa(lp113
F187.6583536304144
aF200.20394722074857
aF20.099921992989643
aa(lp114
F198.27526483550554
aF229.5179371211212
aF72.83746280168316
aa(lp115
F237.11168128157635
aF239.9667177200975
aF0.5848997479203826
aa(lp116
F205.81717292136403
aF240.10838014670156
aF72.04733938937288
aa(lp117
F214.95425104006068
aF225.02306131405092
aF9.40327700522268
aa(lp118
F183.30910355124246
aF205.894194706333
aF35.279913731951
aa(lp119
F213.67479001350182
aF219.03169735202525
aF19.04938040296433
aa(lp120
F172.29126585382724
aF201.31246476765332
aF43.27488877582488
aa(lp121
F181.62712664570685
aF249.95376639054962
aF169.16291821825152
aa(lp122
F215.37338207956643
aF244.6548114840073
aF70.06730558398858
aa(lp123
F187.09579690066974
aF192.3065984977446
aF-2.1109317015422686
aa(lp124
F201.6890462990121
aF205.068328501237
aF10.897006177003933
aa(lp125
F235.83544342048373
aF239.70880791519792
aF3.2891547356968953
aa(lp126
F216.73987991534142
aF223.8192192715254
aF13.378412636686754
aa(lp127
F159.63504164593527
aF201.35799903339426
aF67.44179498966638
aa(lp128
F214.21669095827787
aF231.09770584336692
aF36.11654605919507
aa(lp129
F231.89168914808852
aF246.93021486623653
aF32.47855894505327
aa(lp130
F159.44122105428258
aF237.6027741299894
aF172.8872188905876
aa(lp131
F213.05091494199525
aF223.68890315580003
aF27.74588968896251
aa(lp132
F183.67073131753006
aF235.2048052758488
aF115.47665523791703
aa(lp133
F153.69223601488437
aF178.14628509602326
aF36.84925753224441
aa(lp134
F191.3681941725765
aF197.98412661738857
aF4.984113717526821
aa(lp135
F215.70994863396197
aF228.32286555303008
aF20.498993646967882
aa(lp136
F154.74895037635272
aF158.16356841843594
aF-1.6345261798708908
aa(lp137
F200.5350193636526
aF230.0074460739473
aF65.51496174624366
aa(lp138
F160.1395825332986
aF231.145668424566
aF143.09544179019733
aa(lp139
F190.8112991770999
aF206.98853565605242
aF28.970939194631843
aa(lp140
F203.34469866287142
aF244.86778765406643
aF99.96748527971629
aa(lp141
F203.02665542377838
aF213.80998192791736
aF19.938933992410618
aa(lp142
F215.66879653536128
aF220.48425732389688
aF10.609421975662015
aa(lp143
F167.94315937096707
aF171.7743179373981
aF0.2597228991454381
aa(lp144
F191.66062385954604
aF215.46237571552703
aF34.149042754416804
aa(lp145
F203.96336302743052
aF239.23263618971055
aF73.81169553199203
aa(lp146
F205.53351022430786
aF244.82104621797578
aF100.56059354126941
aa(lp147
F203.55085475725497
aF203.65052916284108
aF-0.5344958514549739
aa(lp148
F177.78769272950993
aF249.65421676172713
aF185.8483964628196
aa(lp149
F189.69648915611717
aF200.75774876056929
aF18.18359996295468
aa(lp150
F166.62618299402456
aF169.02530331481915
aF1.6386895688277912
aa(lp151
F215.6035101322871
aF216.11024818502938
aF-2.6716034914502327
aa(lp152
F227.4565553520329
aF237.45858097774945
aF15.405098104871573
aa(lp153
F191.1715101014854
aF229.38866142561227
aF81.94613866031533
aa(lp154
F176.12711301580518
aF207.34286430055644
aF47.63050225373256
aa(lp155
F235.93486724547853
aF236.40605634771845
aF3.742953484409311
aa(lp156
F161.57804940263404
aF193.20032217198184
aF53.94996113062129
aa(lp157
F229.611066611
aF241.89542877265995
aF33.01093028332687
aa(lp158
F204.7926308213568
aF247.81356963483648
aF107.70829365976249
aa(lp159
F233.64755164905895
aF239.58786436450578
aF9.146135574508104
aa(lp160
F219.76763979464408
aF227.2751792186911
aF9.82307131849921
aa(lp161
F187.67125069359741
aF188.38745182326514
aF-6.9903997867198715
aa(lp162
F202.76013074011058
aF222.6455880105491
aF39.69507533477424
aa(lp163
F185.51956614001617
aF224.64467639027384
aF70.68652212711689
aa(lp164
F191.6335593406704
aF194.49511493269196
aF11.007532648483105
aa(lp165
F166.16402656392742
aF244.10825342851956
aF191.8022515529093
aa(lp166
F184.86517023620212
aF222.87600309101953
aF78.81211252373122
aa(lp167
F161.44743055187348
aF170.7091430219296
aF11.882817331321782
aa(lp168
F193.93619487608635
aF235.18803802815395
aF95.61438166148717
aa(lp169
F155.4427938013799
aF243.0112327657269
aF197.57342852441226
aa(lp170
F230.73674201885973
aF249.59101739697067
aF56.58123036361114
aa(lp171
F180.46438025565564
aF225.31088814949044
aF106.65916842924334
aa(lp172
F185.0124535137493
aF222.03971199880127
aF60.00552263181636
aa(lp173
F232.7122377871495
aF247.45668109071343
aF37.009853817037616
aa(lp174
F165.21894969426222
aF184.58542198505162
aF24.299908563890085
aa(lp175
F173.99751243119445
aF186.60928863978205
aF18.111647476848322
aa(lp176
F215.6553660573535
aF220.51349934280665
aF19.42114027136213
aa(lp177
F183.14173612274553
aF218.99298592862502
aF68.94422201861084
aa(lp178
F237.20990937103738
aF245.8981183925148
aF28.206230494138023
aa(lp179
F208.57240952859883
aF235.36212801052835
aF51.12904492803013
aa(lp180
F211.48767664464833
aF221.9388313832371
aF18.018957571366066
aa(lp181
F202.75539332197468
aF219.5309899040192
aF37.66350705753985
aa(lp182
F159.71971079256602
aF215.57636951230631
aF102.1255838381205
aa(lp183
F221.85015543940506
aF227.40058797354837
aF4.265243119948048
aa(lp184
F219.80845150605037
aF237.7799205020287
aF41.435274187292464
aa(lp185
F182.90810162137709
aF217.4710517444384
aF58.12970565553315
aa(lp186
F190.39003830394944
aF192.41530736174764
aF5.127069993681177
aa(lp187
F234.14086177495943
aF236.01235577122753
aF8.03344515451436
aa(lp188
F166.24643013169236
aF242.63201652441649
aF178.6293579824221
aa(lp189
F163.5834116876075
aF170.65117862781315
aF19.477287340579558
aa(lp190
F184.17802599104812
aF249.91746946347916
aF166.2558453240324
aa(lp191
F160.4464567893833
aF202.40179636946755
aF67.88449421223153
aa(lp192
F205.35398168344278
aF230.2539285388659
aF51.23125760227783
aa(lp193
F204.60014649114723
aF236.62033723435286
aF63.35363671370668
aa(lp194
F178.69473592042675
aF211.72789039435986
aF63.57818033616904
aa(lp195
F213.61135504429444
aF218.3535447449136
aF13.195732850333371
aa(lp196
F160.12084073814336
aF209.99666789453457
aF93.61366891826088
aa(lp197
F213.30546228370207
aF218.51021479283082
aF5.860302581955456
aa(lp198
F175.93862568504764
aF233.9757858182249
aF129.140383077203
aa(lp199
F213.8921360807267
aF242.6762570580374
aF62.95439817038742
aa(lp200
F219.81896499084962
aF230.55048347430468
aF32.634417780580705
aa(lp201
F153.92145921783865
aF174.16969947454547
aF21.762956699603475
aa(lp202
F197.6480274418288
aF245.22775905776857
aF118.77886491707353
aa(lp203
F191.66796244717935
aF214.60738619693467
aF45.550144032932046
aa(lp204
F220.3916434986461
aF243.2545058134426
aF55.01337919736409
aa(lp205
F203.32256816591178
aF233.4944031173708
aF66.70142076743632
aa(lp206
F237.37054443142395
aF240.27152000608217
aF4.567406739864669
aa(lp207
F169.20144470584114
aF201.78088212838324
aF54.413741042972156
aa(lp208
F208.0987366784517
aF223.59923382299564
aF29.794430367201162
aa(lp209
F172.41148339913912
aF227.12685646085643
aF102.21352782253354
aa(lp210
F198.18796264372224
aF210.12652910148273
aF21.670623282216333
aa(lp211
F182.37828031672046
aF221.1190461149248
aF78.46613978418618
aa(lp212
F200.7881854206257
aF208.37895507074114
aF10.901503313705982
aa(lp213
F160.24608290287938
aF215.92223468060843
aF106.06537944936461
aa(lp214
F198.53545198063017
aF202.41016666577246
aF6.881914308008491
aa(lp215
F207.67322821541222
aF243.89773540376902
aF92.92875923393335
aa(lp216
F218.77236981855572
aF223.93650009508147
aF9.913761706879257
aa(lp217
F152.1962649029513
aF206.9857821400407
aF92.72964216131545
aa(lp218
F166.99896684120097
aF195.24481140758527
aF43.85383005729831
aa(lp219
F172.3705779347676
aF229.0445024500393
aF104.83190443110412
aa(lp220
F209.94519869105605
aF246.0709663120213
aF77.43355304814577
aa(lp221
F210.9355966457701
aF242.01823755860363
aF64.79306315522852
aa(lp222
F218.6180083360727
aF241.78745032810417
aF53.90458278551791
aa(lp223
F220.767130757638
aF237.85588254541102
aF43.652340614786446
aa(lp224
F227.24534207552892
aF239.2005726009607
aF27.19251106373243
aa(lp225
F215.61384843173872
aF240.46510945945852
aF63.78879472667211
aa(lp226
F155.76078547034905
aF203.90399815648243
aF79.87464469215195
aa(lp227
F166.98656828008632
aF189.8593399579316
aF31.782565370112707
aa(lp228
F189.57974612726343
aF225.302913892162
aF66.48889028736009
aa(lp229
F165.55224522769913
aF204.75367062772744
aF57.57205040727713
aa(lp230
F181.28157850034137
aF191.94291568627554
aF8.11986670060827
aa(lp231
F158.67187774010978
aF164.53177762380014
aF-0.6519857906913069
aa(lp232
F152.4679010358806
aF172.3454192611815
aF15.164279032881856
aa(lp233
F183.6542380729755
aF220.51275541587313
aF72.59459300842364
aa(lp234
F154.67160205317248
aF213.94777381608037
aF107.33051002114664
aa(lp235
F199.14141733960074
aF223.83777281468852
aF56.25575301801236
aa(lp236
F162.92067703014132
aF190.70384420738645
aF43.22792821200202
aa(lp237
F179.4399809718263
aF186.15928529011012
aF4.222594537914876
aa(lp238
F186.63503166362187
aF244.56806572316844
aF122.01037642128877
aa(lp239
F238.47709479232032
aF240.3427458783892
aF-1.338353810193511
aa(lp240
F187.9666778874228
aF239.3601045168249
aF117.67745146302427
aa(lp241
F178.08109041288216
aF209.21812662919478
aF52.12078784243326
aa(lp242
F153.18851957879417
aF184.79128912776753
aF39.700175112992795
aa(lp243
F218.2548216612969
aF244.00954458829852
aF60.65583061461689
aa(lp244
F230.76497133523367
aF240.29505321712503
aF16.198012209573257
aa(lp245
F202.1524504439252
aF227.24463427126747
aF47.95195597132448
aa(lp246
F217.61564487300748
aF249.1308783693754
aF89.1561884448288
aa(lp247
F186.17526308939807
aF247.96308422843362
aF162.43371330856942
aa(lp248
F237.00885774956387
aF239.8043317715884
aF6.514014728375353
aa(lp249
F231.98499715454335
aF244.6235447916002
aF33.99086266005212
aa(lp250
F177.09091955351616
aF243.79146127037177
aF151.20339537513192
aa(lp251
F151.02951338137265
aF195.7906416214666
aF70.76690790019863
aa(lp252
F157.8307182470183
aF171.4654152716864
aF10.348147228176366
aa(lp253
F160.99689259621348
aF212.14402526045
aF73.32442092561246
aa(lp254
F213.5736526795426
aF241.09901694899355
aF63.94063110846908
aa(lp255
F206.86777903018748
aF222.39703256041753
aF19.460545334252775
aa(lp256
F204.76702602572715
aF243.79722034026457
aF88.71535722927968
aa(lp257
F211.76795792445307
aF233.62824447359802
aF46.57584132439301
aa(lp258
F166.58184618855924
aF185.75322390893862
aF17.617110487976767
aa(lp259
F181.47264543556042
aF243.51676159039667
aF143.36353432726386
aa(lp260
F192.32528240826383
aF249.4474270031239
aF138.83608724279418
aa(lp261
F224.82689177459395
aF243.01533074881073
aF40.37542149188235
aa(lp262
F203.41909846888444
aF219.8054315039107
aF43.68510203370644
aa(lp263
F205.9011221829836
aF209.12658395674177
aF1.985270632604279
aa(lp264
F224.88364277353912
aF227.42686062253705
aF7.105589556210763
aa(lp265
F172.18707889936002
aF180.55673506766155
aF16.258824768011408
aa(lp266
F169.40428093599525
aF174.06591551310783
aF2.9778529295259535
aa(lp267
F157.6119037660047
aF192.09762877273076
aF47.392076193109766
aa(lp268
F182.03528569399
aF192.3802905548584
aF14.025345846702999
aa(lp269
F219.07428448758273
aF244.677639976716
aF48.61135157078789
aa(lp270
F168.0466109904964
aF216.24792481618934
aF85.64538892505988
aa(lp271
F160.5266246155567
aF163.08570893772927
aF-3.605303035531347
aa(lp272
F201.6910429413356
aF235.12501821366513
aF83.73819677219059
aa(lp273
F176.44634814657545
aF177.5864032242014
aF-8.25781982378406
aa(lp274
F202.34511562640046
aF247.69131178455842
aF102.21924698568576
aa(lp275
F170.26624618137402
aF179.77639867182177
aF10.068867350966388
aa(lp276
F204.57679012343374
aF229.6840674132243
aF51.93929913648806
aa(lp277
F234.8840810042958
aF247.4079047311286
aF36.18582301418045
aa(lp278
F150.10721178898444
aF246.98457077171588
aF231.75859593580293
aa(lp279
F201.99771404240687
aF218.96342432511818
aF26.428246402126593
aa(lp280
F183.41996942997298
aF206.07288773936548
aF40.148410505368524
aa(lp281
F207.46594312308784
aF210.14260054739833
aF9.088890183335836
aa(lp282
F177.13347761605047
aF239.80339230181755
aF143.36977544781288
aa(lp283
F229.6285694037279
aF241.97575071454463
aF23.086068225800677
aa(lp284
F215.25098930178257
aF219.44651638646295
aF11.596960616554586
aa(lp285
F220.4408942943689
aF221.58856177958933
aF8.893102985040379
aa(lp286
F192.52428160347284
aF213.77719985585242
aF40.61638728787095
aa(lp287
F192.39231628060787
aF193.59029678884986
aF-4.903086712693122
aa(lp288
F235.02215052751004
aF248.8808728460987
aF41.96615509882522
aa(lp289
F170.34948636565352
aF200.4023164414205
aF47.87260696073867
aa(lp290
F166.3445761879205
aF249.4154714446014
aF205.94083789769581
aa(lp291
F152.72410401140235
aF241.07536185845623
aF200.52784763727615
aa(lp292
F151.45124616599122
aF246.88871411113803
aF227.79278511193158
aa(lp293
F158.9015423489112
aF220.4879821198385
aF115.36608586637726
aa(lp294
F159.36423786922515
aF215.93745960392573
aF99.96640613377788
aa(lp295
F170.51795928598065
aF179.73357664655384
aF12.514255920775154
aa(lp296
F156.5591567767962
aF173.87771537087275
aF17.045262369219543
aa(lp297
F165.42253510915293
aF216.02051385145438
aF89.10733845348035
aa(lp298
F175.99788895706183
aF235.1533021489355
aF129.96925217448162
aa(lp299
F192.24967517072548
aF238.97101344029966
aF100.03459677127506
aa(lp300
F230.6812378225387
aF236.62399709268635
aF10.810884351779592
aa(lp301
F226.41892729309234
aF248.2668063677355
aF53.95762144569173
aa(lp302
F154.1206977282449
aF238.39317517020297
aF191.75943426419974
aa(lp303
F201.84856226713944
aF204.43816601471573
aF-6.066030765528858
aa(lp304
F214.36632700514733
aF236.36420521775108
aF44.9427674429826
aa(lp305
F204.26025291260356
aF227.0617946486117
aF49.07788590023034
aa(lp306
F158.7859353579185
aF181.5167978672981
aF29.410963646009122
aa(lp307
F169.1369326467905
aF188.30000602981738
aF31.9603005976085
aa(lp308
F172.66004528354344
aF187.08776329967213
aF23.148865536285715
aa(lp309
F207.2339643826734
aF217.6449847691915
aF14.15942747964625
aa(lp310
F239.79413536112816
aF246.19852949331914
aF17.187981817441536
aa(lp311
F232.07202529845722
aF239.15963192077413
aF15.855266324842182
aa(lp312
F177.8972968917952
aF246.81952991863346
aF172.07811835330907
aa(lp313
F171.83514363823463
aF210.49013518511157
aF60.88370729932401
aa(lp314
F179.9539637732394
aF242.2455503339445
aF147.26062590440097
aa(lp315
F191.06110095271038
aF240.4573936822955
aF106.78751772814522
aa(lp316
F205.63525123840594
aF216.6672002161649
aF20.165061333454435
aa(lp317
F154.8352565792775
aF210.38029165581852
aF98.44100753985975
aa(lp318
F168.05963998769147
aF246.03239615291284
aF181.96057158125907
aa(lp319
F170.39022127204447
aF197.1292676989517
aF37.20843040973478
aa(lp320
F186.30970205289026
aF236.85084768584812
aF111.64475926877576
aa(lp321
F224.0469865763199
aF234.40183697045796
aF25.500604525912827
aa(lp322
F201.517322673146
aF224.20862770651993
aF47.890874464442675
aa(lp323
F236.06385627334066
aF242.08862215848922
aF13.595145515548154
aa(lp324
F169.62808570325598
aF219.46387657282452
aF81.95044029072055
aa(lp325
F190.6739120085013
aF239.49707641726846
aF112.48123866748284
aa(lp326
F218.7371879086332
aF244.313015302091
aF57.9038273631992
aa(lp327
F239.47332958513334
aF249.4024257909758
aF29.2013641858963
aa(lp328
F182.3947180061661
aF238.66157924702847
aF122.6931690393677
aa(lp329
F217.90698636237374
aF233.51594912656708
aF41.0015689448558
aa(lp330
F197.91068035822065
aF229.16793835251758
aF61.797048211650754
aa(lp331
F171.75634316172827
aF242.4960734518744
aF163.52822013326244
aa(lp332
F181.79024865151231
aF204.51207315315807
aF37.24652306109993
aa(lp333
F216.63337310579533
aF223.03854122814766
aF14.964974182665037
aa(lp334
F208.34371861255968
aF222.7439158195187
aF31.69967467026066
aa(lp335
F201.0812231873417
aF213.88914706166054
aF24.395686563585937
aa(lp336
F175.22392947507234
aF202.841616451946
aF44.03726035619622
aa(lp337
F194.57121121188476
aF226.17256706828502
aF64.64589167020254
aa(lp338
F153.1716323807348
aF190.7514978735684
aF59.52861742426276
aa(lp339
F184.627345017382
aF228.9123885031549
aF96.30092413205895
aa(lp340
F158.30121211267286
aF200.57325414281075
aF70.27811376055828
aa(lp341
F208.52810266840942
aF227.51267789505286
aF47.0322955101481
aa(lp342
F161.29013421099037
aF199.96392835898232
aF62.883579422821725
aa(lp343
F226.6173496827672
aF236.53561036733606
aF22.933519845803495
aa(lp344
F219.73320298489688
aF233.36013703732868
aF35.77203806742444
aa(lp345
F190.21525883954448
aF221.38646924793687
aF66.34194823204966
aa(lp346
F197.01130421739575
aF237.997594803754
aF96.31067572754151
aa(lp347
F159.120142230589
aF249.58897512121666
aF221.03580979915267
aa(lp348
F225.51475462528873
aF228.42815814404895
aF3.416769779650259
aa(lp349
F233.8205246852009
aF241.24619615655803
aF6.508106760276386
aa(lp350
F168.8917616368258
aF176.8209572653254
aF8.496333732689466
aa(lp351
F152.90635655049215
aF242.99473744007946
aF195.97066357283433
aa(lp352
F232.20002554164017
aF233.57371464368876
aF7.94812194207255
aa(lp353
F178.22299933583153
aF206.00085129645325
aF49.6757099152211
aa(lp354
F213.07954086945392
aF228.43835170001336
aF29.446615788059
aa(lp355
F158.15124701362961
aF202.7286019426711
aF67.07884435734219
aa(lp356
F198.22539546621766
aF203.4790746355036
aF7.6900710354065485
aa(lp357
F151.1594502534681
aF219.93076243750215
aF118.38588434399173
aa(lp358
F173.29044535684923
aF216.3643248712146
aF71.19550046509424
aa(lp359
F171.955748987085
aF184.86239775782568
aF19.401511731116138
aa(lp360
F175.80876779199502
aF221.559321130466
aF86.14616606932178
aa(lp361
F234.44119294766236
aF235.51824470231762
aF7.379132287606186
aa(lp362
F212.51181511462858
aF218.98053301684087
aF10.86347706312214
aa(lp363
F183.66549613346137
aF235.70721316823943
aF107.15211194052672
aa(lp364
F185.7000836174679
aF202.26673331629203
aF22.778485258440455
aa(lp365
F231.92829948442886
aF246.12215957994607
aF28.965600876780623
aa(lp366
F190.51023268644673
aF217.63236330112113
aF41.47644629654734
aa(lp367
F176.37513808025386
aF186.33284750847636
aF9.270905656632118
aa(lp368
F164.3958373791379
aF172.17132647814037
aF11.423828185941009
aa(lp369
F216.75903077935357
aF239.7609298831775
aF56.475789330186245
aa(lp370
F168.28111138595335
aF206.81910718276066
aF59.97487181832909
aa(lp371
F219.63136642041076
aF219.8552345502883
aF-1.265517405946607
aa(lp372
F226.09515848362076
aF230.03180487116379
aF18.535150297595024
aa(lp373
F211.1909552519946
aF227.31475404464936
aF35.67859605326099
aa(lp374
F191.02538759112076
aF192.51441915582956
aF-2.8325795030172616
aa(lp375
F170.02233520397834
aF181.16059549472595
aF14.660451854758898
aa(lp376
F157.72120897597165
aF194.14037347609877
aF56.84082025222858
aa(lp377
F239.7423913346194
aF247.52613030142447
aF19.006519539238507
aa(lp378
F191.86707336737732
aF245.0571369797927
aF127.49623755384592
aa(lp379
F163.78036146831525
aF197.93675746163578
aF58.1556868672024
aa(lp380
F205.55612010498004
aF244.71833434900924
aF101.97238099783809
aa(lp381
F226.676419082443
aF236.82788028877343
aF21.409463931166275
aa(lp382
F192.68875878351218
aF203.73143821744
aF15.152800562882081
aa(lp383
F229.98881754966084
aF238.3328250395904
aF19.2007279661451
aa(lp384
F225.80110782620636
aF238.24881914515348
aF31.473873804247965
aa(lp385
F198.05791748043507
aF219.41193459390087
aF44.07919496165883
aa(lp386
F162.33507659185275
aF221.94245226646174
aF115.96624858793129
aa(lp387
F234.22256049741247
aF236.46657220291064
aF5.9018853920271
aa(lp388
F205.26144373430435
aF209.25371183339178
aF6.023401905145292
aa(lp389
F163.7425134836358
aF174.84031010229828
aF14.854408175473603
aa(lp390
F180.65349470489153
aF247.2927921469318
aF164.36462524307055
aa(lp391
F194.04652767712338
aF196.9183156539601
aF8.15482504650064
aa(lp392
F183.29942524163914
aF210.02316746571285
aF47.92662812530001
aa(lp393
F221.43206353560106
aF244.9579937165204
aF61.238667683044355
aa(lp394
F189.64573100433614
aF212.30775252137474
aF42.695493764278744
aa(lp395
F166.6640759112821
aF245.7609834993586
aF188.9112322198077
aa(lp396
F153.58281031900265
aF180.27397799149338
aF29.85602943435532
aa(lp397
F209.28222010226727
aF231.63784610975947
aF45.56246984082867
aa(lp398
F214.881974642587
aF246.92015801629978
aF74.4116278880477
aa(lp399
F170.97173872807699
aF179.51350686084908
aF12.768997812878222
aa(lp400
F155.43743875729024
aF161.12572835593406
aF0.8032502455057733
aa.