(lp0
(lp1
F192.78979668071756
aF195.61119653207217
aF3.9417497044675933
aa(lp2
F219.1320694681486
aF229.84855676202224
aF24.61990283021419
aa(lp3
F207.03720953204657
aF248.48584260806257
aF102.8944705367956
aa(lp4
F182.01386047337348
aF185.09254098819065
aF3.5408772934477684
aa(lp5
F229.5444600935562
aF241.67817944066087
aF27.382608973457277
aa(lp6
F231.7178278259907
aF233.42760214721665
aF4.1846188971369065
aa(lp7
F231.96045238309608
aF246.72724772794874
aF34.96230564666447
aa(lp8
F225.21366870811505
aF237.89351191328103
aF28.51626774730764
aa(lp9
F213.45832863166044
aF240.4997563990181
aF62.49992079679057
aa(lp10
F189.4098019798267
aF217.85781140269097
aF52.21593609471072
aa(lp11
F196.29594925512293
aF225.8550306559972
aF59.01164235297484
aa(lp12
F199.6012924672449
aF222.47679955468374
aF44.300388009660004
aa(lp13
F224.51460476578833
aF240.44255540864694
aF35.940222021109534
aa(lp14
F168.5103787928718
aF226.18525645069113
aF114.41019143790797
aa(lp15
F170.16684520660954
aF246.20610410063543
aF182.1502773290038
aa(lp16
F181.87034158775236
aF244.26187806837893
aF147.5330171236495
aa(lp17
F192.89409393339002
aF198.17849937166005
aF9.026736901934992
aa(lp18
F150.49567932411566
aF200.9994133887269
aF82.11911571693774
aa(lp19
F220.2315623492175
aF234.77763417246052
aF30.940192327950747
aa(lp20
F209.31960939452816
aF239.8401221564598
aF69.65933464221028
aa(lp21
F169.3787728157589
aF218.54870032520802
aF91.44605820532703
aa(lp22
F156.1293744897764
aF168.0839959977584
aF13.745742565438148
aa(lp23
F152.34062712407626
aF192.05118594976105
aF59.68177537861261
aa(lp24
F196.76575434977326
aF216.90717259169426
aF36.00453383571745
aa(lp25
F236.66336366640735
aF248.99369107210532
aF29.09847280532356
aa(lp26
F198.48407273388145
aF198.72936686785974
aF1.7736458083308277
aa(lp27
F213.2114457561919
aF242.79156415284197
aF68.85590824498927
aa(lp28
F164.58046842408933
aF234.13253849769333
aF148.4713960464261
aa(lp29
F184.48674557416308
aF240.44369063797257
aF128.71922526022385
aa(lp30
F235.11098194348176
aF242.1971995791332
aF15.995773889311103
aa(lp31
F187.78745313289852
aF195.01804985391544
aF9.62076956516706
aa(lp32
F150.14687983474138
aF217.77534430034495
aF125.9442773752815
aa(lp33
F196.11765617277882
aF199.3911151983147
aF5.5286383324735215
aa(lp34
F239.8939890303151
aF244.222947325394
aF10.784025847596544
aa(lp35
F182.7999232315796
aF196.498936335025
aF22.52530325013838
aa(lp36
F233.10476970929886
aF239.74415186626277
aF14.657924540987844
aa(lp37
F159.85978005882643
aF191.0295397563639
aF44.50083059417541
aa(lp38
F211.08868221573226
aF247.4258628853678
aF89.39243084167792
aa(lp39
F173.00640645451398
aF175.98226154176243
aF1.9471697749326657
aa(lp40
F184.1639607177936
aF196.12531271563142
aF18.858029632824174
aa(lp41
F166.6322524350161
aF212.92849641597238
aF82.0039701028245
aa(lp42
F208.3366590617659
aF227.89986487512874
aF39.924379732070356
aa(lp43
F161.3407765250715
aF202.528833141243
aF65.38627352504551
aa(lp44
F159.88859741279305
aF165.7042261159414
aF5.12008584687722
aa(lp45
F194.0748118728439
aF213.72026347098395
aF35.237296768033985
aa(lp46
F181.2684351456727
aF235.69814411366758
aF118.009534408909
aa(lp47
F172.84824687919368
aF249.74800501385272
aF190.19577133754515
aa(lp48
F239.73902500146846
aF242.75378700890934
aF7.078259190448918
aa(lp49
F237.791600587738
aF244.27832703150662
aF15.477515580899698
aa(lp50
F183.2013781073489
aF232.0511237944754
aF102.77650129621246
aa(lp51
F179.80451883767623
aF245.89220788594764
aF156.75436048715423
aa(lp52
F150.69295249193442
aF171.3297275572531
aF24.24094723171588
aa(lp53
F214.6359713906516
aF232.06353842734194
aF35.300678305941496
aa(lp54
F152.55175462733166
aF233.32122944659548
aF171.79195687117868
aa(lp55
F210.3970654978424
aF217.93635691822112
aF14.105901128534583
aa(lp56
F213.80143888128168
aF230.19621408238652
aF35.43695108846402
aa(lp57
F195.38367684834998
aF197.78671943875966
aF3.7669159252514564
aa(lp58
F159.74928456459196
aF178.21815456677538
aF26.11895231085855
aa(lp59
F190.53101459689006
aF203.53442597036752
aF23.145995686807513
aa(lp60
F193.84998922371938
aF204.93198752298008
aF19.04178159425668
aa(lp61
F197.8434182121648
aF230.10344755984772
aF67.75742441089967
aa(lp62
F192.5229913099124
aF247.11829517522318
aF131.75767590641854
aa(lp63
F230.51895161113407
aF236.06899023403983
aF11.775527943806797
aa(lp64
F219.21275126350804
aF233.6936068246611
aF30.079503003196923
aa(lp65
F211.54524603426032
aF231.1612336707446
aF41.052130605581944
aa(lp66
F237.56428922009007
aF239.8841008189852
aF3.460336291228608
aa(lp67
F199.93320617917982
aF243.7912868953028
aF101.65184625365535
aa(lp68
F203.32696711654597
aF234.87499925057693
aF68.34632350955559
aa(lp69
F190.2396223949433
aF241.05059810542167
aF116.14854434893299
aa(lp70
F155.78544331875048
aF237.05494929491329
aF179.10539462320907
aa(lp71
F214.22454039122442
aF222.1025859235865
aF14.758368668049107
aa(lp72
F169.22935787996224
aF210.11326785175794
aF69.73726035935455
aa(lp73
F210.29442807086005
aF217.0084557397207
aF13.004036354084878
aa(lp74
F213.48286693266456
aF217.6284511488671
aF7.007526233416395
aa(lp75
F224.71303374481158
aF225.61106970482678
aF2.2901766848601715
aa(lp76
F180.97352695441913
aF243.40825188622276
aF146.4587290154869
aa(lp77
F203.66817432502603
aF220.22846975389143
aF32.67491317052658
aa(lp78
F203.96111200437247
aF212.89496966801647
aF13.675153288723962
aa(lp79
F222.8123379995915
aF241.96858760597723
aF43.67995876269615
aa(lp80
F214.33962941298284
aF236.87338198574395
aF50.58254068510147
aa(lp81
F213.29984082490324
aF223.9910449320604
aF22.681789362076618
aa(lp82
F229.47226373278613
aF231.00944781303937
aF2.0695587207664827
aa(lp83
F232.31254057714864
aF234.1806080520042
aF4.876712695941727
aa(lp84
F201.80413149789553
aF233.8456778281514
aF69.36570738278664
aa(lp85
F219.8132726552403
aF238.2392612178241
aF40.02946397759903
aa(lp86
F211.58504037935086
aF217.7001470199832
aF11.566839018430306
aa(lp87
F154.21671720158
aF237.24042233021487
aF182.11643399037263
aa(lp88
F198.7718370361437
aF216.35195455006394
aF31.26020991224451
aa(lp89
F209.82705287410698
aF216.2483189000287
aF11.955484855582533
aa(lp90
F212.1306216532813
aF220.58956104680678
aF16.2188159438932
aa(lp91
F200.69372639334
aF231.266217183116
aF63.85697657371328
aa(lp92
F207.6623231086853
aF247.6606067762119
aF98.11509546558335
aa(lp93
F238.68825166128173
aF244.34638347083174
aF14.837593475451783
aa(lp94
F152.61310702416026
aF208.49311040841354
aF95.32654632651897
aa(lp95
F165.04852627368493
aF208.26412846682916
aF73.48430618645062
aa(lp96
F166.18788259876203
aF244.24057764217733
aF182.34266656401942
aa(lp97
F157.64760197020183
aF243.68305778989938
aF201.49896609013132
aa(lp98
F217.40340322616316
aF230.14602055096725
aF26.184743856604864
aa(lp99
F192.06139117354942
aF198.49838124391303
aF9.712762681379488
aa(lp100
F223.57981841763626
aF238.74940412129678
aF34.62771689681931
aa(lp101
F189.52731483196027
aF231.11272064716846
aF87.37176908008749
aa(lp102
F156.40442082039644
aF216.08305701800379
aF106.72286439972329
aa(lp103
F223.99178231245426
aF236.7072035952906
aF26.82793086088484
aa(lp104
F183.64724589838784
aF231.90946550766728
aF101.72003507526615
aa(lp105
F201.24504693501024
aF206.2240078211011
aF9.386536519507612
aa(lp106
F207.0333309184593
aF220.16802221951974
aF26.285996972438816
aa(lp107
F217.5797853953996
aF238.1814946855008
aF46.28563076784411
aa(lp108
F162.63972110298587
aF221.89829699837634
aF113.73396283426369
aa(lp109
F216.64915342444465
aF221.8124634798295
aF9.10985048827824
aa(lp110
F176.00919482755066
aF195.56771739232704
aF29.47620861289475
aa(lp111
F190.13574047737666
aF211.359036533702
aF37.503758974516515
aa(lp112
F207.81745573479336
aF238.30131286428866
aF66.58293770884302
aa(lp113
F178.01015292740988
aF205.39883825696535
aF45.80084223124864
aa(lp114
F208.13768829553652
aF219.9406960595257
aF24.10755519908277
aa(lp115
F233.64633593939436
aF245.60866994700652
aF28.235197263800266
aa(lp116
F177.40623904276467
aF178.46299092303929
aF0.4846726177423255
aa(lp117
F194.7521455027035
aF232.63645981001426
aF80.82204067852695
aa(lp118
F198.4231900530134
aF212.8809622846765
aF25.618886444073265
aa(lp119
F184.37386314927267
aF187.78851945151158
aF5.046085768635692
aa(lp120
F210.17995105402974
aF233.67509129338333
aF48.78261616329286
aa(lp121
F235.50463345690144
aF244.37451223642006
aF20.828457169562405
aa(lp122
F185.3326475500237
aF239.10558322319687
aF120.33259954487409
aa(lp123
F172.16572017690007
aF213.97917266874433
aF73.1465026573098
aa(lp124
F182.33197389719408
aF204.61220625338086
aF36.53198980697394
aa(lp125
F164.67428872942136
aF246.28885175105205
aF194.8104978335286
aa(lp126
F232.5599465727095
aF234.42039383523482
aF3.841561115041113
aa(lp127
F221.92525055244215
aF227.07738922896817
aF10.608887816044351
aa(lp128
F150.1148035875218
aF185.1109384137945
aF49.391766285545
aa(lp129
F160.89276273577997
aF193.95279836985227
aF50.14984359377145
aa(lp130
F178.67740071251959
aF215.53747041540305
aF65.34002670073994
aa(lp131
F216.57866168762527
aF232.46762442300903
aF35.20277356104322
aa(lp132
F152.99264902256633
aF192.7355666135395
aF58.05225475412019
aa(lp133
F220.74166143457364
aF244.11459403056048
aF54.94014339110825
aa(lp134
F222.49874389032402
aF242.61977534192562
aF49.11732423129555
aa(lp135
F156.95831910848085
aF201.28091213482796
aF70.48226359800637
aa(lp136
F156.80408202197216
aF169.4130916408956
aF14.173182538653158
aa(lp137
F221.90539270182273
aF241.45609363631164
aF43.26045218144506
aa(lp138
F167.79038173390038
aF218.02486308881942
aF92.4057574460024
aa(lp139
F198.20777889007076
aF226.40920709659196
aF58.804605366570655
aa(lp140
F210.472656446879
aF211.47746853956252
aF1.1946218012344363
aa(lp141
F210.68422872015492
aF213.3645195067413
aF2.7634578255828437
aa(lp142
F196.1851209843437
aF205.14215601820695
aF15.343869104863433
aa(lp143
F177.88490156756285
aF188.37134370767424
aF13.111410764160988
aa(lp144
F187.16628638264982
aF210.34925594076728
aF39.29553535893285
aa(lp145
F210.42087118229662
aF237.89606310164652
aF60.404723544236575
aa(lp146
F170.52398111176532
aF238.90992333083273
aF155.2760735474687
aa(lp147
F151.49105078264085
aF154.26165511691184
aF1.7601655064842188
aa(lp148
F206.77704743059388
aF238.2543055549433
aF70.43461528972249
aa(lp149
F171.77717985579866
aF240.19992073042357
aF156.06997925120356
aa(lp150
F223.14054788696885
aF237.01199354324638
aF29.199838646032816
aa(lp151
F179.24983257432555
aF249.78091447802058
aF174.30277457295114
aa(lp152
F236.96803303543783
aF244.9457570450791
aF18.16439112872863
aa(lp153
F221.94088420866936
aF234.37956426591606
aF25.340824118812165
aa(lp154
F238.58087529375916
aF242.81515534686207
aF9.492632765198838
aa(lp155
F182.94605636985483
aF231.27419630224438
aF101.59257383418112
aa(lp156
F232.14503012295188
aF247.1488584077069
aF37.61438419202368
aa(lp157
F169.38682017016694
aF205.5253433075041
aF60.189878790449235
aa(lp158
F204.29908905106757
aF235.22838452185593
aF66.48451212244574
aa(lp159
F204.2164931070502
aF216.44043218671501
aF24.641969126971883
aa(lp160
F239.79559419722437
aF249.4042623481646
aF23.700293113708785
aa(lp161
F213.81221666221376
aF244.41100108967584
aF71.03044731334867
aa(lp162
F157.87217292380754
aF181.59596791142167
aF32.92446496441271
aa(lp163
F211.08695099998303
aF249.7551076151383
aF94.37671859036308
aa(lp164
F213.29420784834625
aF230.82954774700883
aF36.75419506985041
aa(lp165
F197.36341332433142
aF246.3113117451921
aF120.98397962542708
aa(lp166
F163.17714553192206
aF211.86515763970743
aF87.12802137276869
aa(lp167
F176.97003399887151
aF247.44826653122593
aF171.68066885277014
aa(lp168
F195.54104743381552
aF244.2128848437452
aF114.59001014384141
aa(lp169
F159.19965730153106
aF246.29188181397015
aF209.419912342603
aa(lp170
F188.8837942529168
aF202.3007355394288
aF21.16647853762349
aa(lp171
F174.98728517231754
aF207.48653808846905
aF56.29919090195632
aa(lp172
F204.80986232116234
aF230.70342962070472
aF53.73892362847471
aa(lp173
F207.8593173293533
aF211.75598588257557
aF8.308824725877853
aa(lp174
F237.9650352940315
aF245.60726327265766
aF17.676430267206246
aa(lp175
F160.43516734611785
aF216.71436201777496
aF103.58910250752781
aa(lp176
F164.26230153555636
aF249.8895205188535
aF211.51278762216663
aa(lp177
F157.97465234661496
aF236.77692107651865
aF173.9173046198533
aa(lp178
F156.14471936682486
aF168.17877494911966
aF15.63301615082798
aa(lp179
F202.71687226337048
aF220.03232908161382
aF31.932332552020043
aa(lp180
F185.672521099324
aF188.63031783369937
aF5.329744329601317
aa(lp181
F163.15780511154003
aF187.47380078476726
aF34.67218222587794
aa(lp182
F202.77125497541755
aF244.27791892620547
aF96.70388122952123
aa(lp183
F172.8576701240635
aF230.548896379922
aF120.83194922235553
aa(lp184
F188.07781087399525
aF204.94519353585812
aF28.378000669682905
aa(lp185
F206.13725021601076
aF217.96944245150848
aF22.574801020765918
aa(lp186
F195.74632130856352
aF233.00101975276223
aF78.47622608715912
aa(lp187
F228.6455190955533
aF232.31363350333433
aF9.115274267824322
aa(lp188
F230.45310919643873
aF247.34817872038093
aF39.96049353736565
aa(lp189
F235.3789916301705
aF248.80259680635885
aF34.72581790393449
aa(lp190
F189.36751243173404
aF222.96963299459185
aF66.31378802811115
aa(lp191
F233.01797034540624
aF243.90482716124416
aF25.781410453055212
aa(lp192
F166.8286666908916
aF170.46751499055844
aF3.16997636223761
aa(lp193
F184.65928097174486
aF207.77832232461995
aF37.83307620552205
aa(lp194
F151.74560715152484
aF249.31104218252156
aF240.44678079399793
aa(lp195
F197.18754117320964
aF234.9528480132741
aF82.05249526797213
aa(lp196
F209.97468535634636
aF240.806971887714
aF69.29655291729071
aa(lp197
F176.57669753229248
aF181.42758623087622
aF5.497620127718591
aa(lp198
F184.55938566585422
aF185.94885502978593
aF1.4375471781847058
aa(lp199
F222.47595891753025
aF229.16414305109282
aF12.082513319001286
aa(lp200
F192.18456089802834
aF226.24627829446294
aF69.72647334145952
aa(lp201
F225.2241628756034
aF238.90533540198072
aF30.617015058700765
aa(lp202
F162.46890410209687
aF205.80573141275096
aF71.76358699352961
aa(lp203
F216.30956359271417
aF221.79236059596985
aF11.509541145128368
aa(lp204
F158.3214407172497
aF230.47770916274465
aF149.5306710346356
aa(lp205
F167.04091620270327
aF209.9380796720721
aF73.45135685095936
aa(lp206
F206.44555366604374
aF232.42855747136295
aF55.35692324295803
aa(lp207
F210.2677345602403
aF225.95193551586306
aF33.007704066748055
aa(lp208
F187.94714439555105
aF230.07793195735954
aF87.32217538330893
aa(lp209
F178.99599170160562
aF208.55125877865214
aF51.32457763932308
aa(lp210
F208.52342450111865
aF245.06785875731015
aF87.79998354191862
aa(lp211
F228.27900220083296
aF228.6811889150494
aF-0.8131140723639317
aa(lp212
F217.6462326638857
aF225.6838379157089
aF17.038096728246977
aa(lp213
F156.9224499061998
aF189.29844117988247
aF46.19354703757765
aa(lp214
F212.757958300453
aF244.91251782096327
aF76.5680897609416
aa(lp215
F152.38932767315518
aF191.93399420406536
aF58.25715697279497
aa(lp216
F206.16412973342378
aF237.34888270224724
aF68.01848948833116
aa(lp217
F192.65904512425732
aF229.75915038163876
aF77.16281205702701
aa(lp218
F229.78750922990193
aF248.39665813466
aF44.75405254661022
aa(lp219
F159.93185457816983
aF191.5849960699885
aF46.87615642757025
aa(lp220
F161.975521460004
aF218.91605454154475
aF106.70915165121568
aa(lp221
F165.7613261366896
aF211.39421504920756
aF80.62602726746609
aa(lp222
F156.3312756727191
aF183.7639850741861
aF37.93715398780502
aa(lp223
F153.6983430388497
aF198.31139752039556
aF69.13199777869511
aa(lp224
F226.0199356542298
aF232.2059408884077
aF14.290835246002583
aa(lp225
F173.81902221797523
aF235.00512145634912
aF130.89530456755082
aa(lp226
F194.25700886145637
aF194.59588317743024
aF0.7379859117017022
aa(lp227
F182.83090948791138
aF188.4618665718247
aF7.827825520682014
aa(lp228
F232.67441717979028
aF244.52786576091705
aF28.3072109036334
aa(lp229
F225.40650491254212
aF245.91925350656769
aF49.516589852244856
aa(lp230
F157.4971899558176
aF211.19399352245279
aF93.35988540790764
aa(lp231
F176.04643384494284
aF230.59114440177598
aF113.63254061451372
aa(lp232
F197.84220671207476
aF204.85464943566922
aF11.726613654849444
aa(lp233
F179.71121637694728
aF193.11425191011384
aF19.261683736824
aa(lp234
F230.44993091744715
aF232.35955379706752
aF3.629414746502984
aa(lp235
F154.51550631346592
aF157.26708203534568
aF4.339525003185206
aa(lp236
F161.59230932042288
aF206.21328217013652
aF75.18070445688865
aa(lp237
F157.6172680277441
aF198.89720443275732
aF64.57195509313071
aa(lp238
F225.31116124892208
aF233.46981229441573
aF16.761310505825378
aa(lp239
F214.88664784295622
aF230.67018433074088
aF32.06262354863213
aa(lp240
F177.72510389656966
aF180.35007850857306
aF2.7558055620934416
aa(lp241
F167.3544621504167
aF235.58752376598028
aF150.60573789570338
aa(lp242
F200.76343446490458
aF203.40951203254016
aF3.5147658160169444
aa(lp243
F208.97224667946176
aF241.3815762544772
aF73.04510640679015
aa(lp244
F208.40337187980163
aF248.25053496468382
aF96.22008990747698
aa(lp245
F222.4781292229879
aF241.87997297396404
aF44.44783471397922
aa(lp246
F152.4511601003189
aF172.13324295646254
aF25.36852246461325
aa(lp247
F182.90274804689713
aF245.9195285776608
aF150.08839906119272
aa(lp248
F199.37389334513136
aF238.93514518853937
aF88.68611147706562
aa(lp249
F162.66851325460186
aF237.683888566753
aF166.11046925702453
aa(lp250
F204.13580729219433
aF212.60187813589806
aF13.215870106297618
aa(lp251
F202.9951944406186
aF217.27498936260145
aF27.764979679658005
aa(lp252
F150.71920344644576
aF167.4010431043088
aF19.842649092785273
aa(lp253
F237.89388731512008
aF243.7232468298827
aF13.87327650704411
aa(lp254
F181.1404641160471
aF231.21561423626898
aF105.18652190244809
aa(lp255
F230.7077614733854
aF232.00371678016458
aF3.8103155306085874
aa(lp256
F152.0371130364415
aF244.7959550793102
aF219.23226338799836
aa(lp257
F150.87637092634642
aF175.61376861913305
aF30.319981931984607
aa(lp258
F180.46926663182117
aF232.92136687970003
aF110.65868849201009
aa(lp259
F153.1294269760126
aF240.20153500110666
aF197.38959630553555
aa(lp260
F166.5690096244519
aF239.39511421680464
aF164.2016758513504
aa(lp261
F236.85158033347517
aF240.8523473701869
aF8.38505582675183
aa(lp262
F156.7389407865435
aF158.24978827031524
aF1.698818404150016
aa(lp263
F231.35114321110188
aF235.90836032914666
aF10.5981403259129
aa(lp264
F233.23951753066478
aF248.1716823591835
aF37.27649348411088
aa(lp265
F155.82040715115943
aF241.35733626619935
aF194.9255854195949
aa(lp266
F236.57527046208537
aF241.9490286220465
aF13.611737191937364
aa(lp267
F183.8325565157837
aF207.50288366013842
aF41.32742978975724
aa(lp268
F201.93936449849502
aF236.24533148255
aF74.57062090282224
aa(lp269
F156.59979609495971
aF201.39404121437636
aF73.03139068153436
aa(lp270
F174.5826160374483
aF226.131983314443
aF102.30336038259267
aa(lp271
F171.02946084514102
aF219.96071626736486
aF92.86739674887274
aa(lp272
F208.02227959393173
aF245.4589710649365
aF88.52099493332136
aa(lp273
F184.42082944769336
aF199.99791444719256
aF26.199079329680767
aa(lp274
F191.02743014505685
aF215.49686179501168
aF44.967523958760104
aa(lp275
F165.09742388646666
aF229.22920171471338
aF130.15950853152387
aa(lp276
F194.45497227811498
aF198.5411591141511
aF4.970422943325852
aa(lp277
F177.05599421370061
aF243.4216126487201
aF153.04747718548674
aa(lp278
F162.37911720960068
aF222.28373931250712
aF116.16921856316003
aa(lp279
F196.19955827891403
aF234.18471432066184
aF81.18993411514528
aa(lp280
F198.191125166055
aF234.2647932450061
aF76.90185693866546
aa(lp281
F211.33005352594054
aF237.92578350312812
aF58.48069102869705
aa(lp282
F224.15012319748388
aF231.69288933698996
aF16.498026852955338
aa(lp283
F231.25151895747757
aF247.4445757495518
aF40.05885452074186
aa(lp284
F202.48697657477277
aF231.59224023507622
aF61.19809598463673
aa(lp285
F235.70906329673886
aF243.7770973551435
aF20.423610326886017
aa(lp286
F164.61976697070287
aF228.39233900063795
aF130.06347145919227
aa(lp287
F166.8070277920441
aF201.134003716834
aF55.80070291497289
aa(lp288
F214.83047168126961
aF216.1808825193814
aF1.5654784580457695
aa(lp289
F190.92463114238075
aF204.74788910631383
aF21.621078145347873
aa(lp290
F182.08788503059148
aF240.4414987826346
aF134.30474324054282
aa(lp291
F186.14306950912476
aF206.67549637695643
aF32.68383485555713
aa(lp292
F161.21940640465405
aF230.18423966898456
aF141.65970802180496
aa(lp293
F155.32679705868102
aF156.39264852958527
aF0.43258939054947587
aa(lp294
F212.85571936778095
aF241.47720464047904
aF67.25931859458449
aa(lp295
F218.18589065251456
aF238.13089460769382
aF45.33171050775391
aa(lp296
F207.02444885195086
aF219.76015117906167
aF23.40792827360622
aa(lp297
F204.7993274333306
aF235.88685365169025
aF68.51428191029729
aa(lp298
F150.25886832789797
aF181.714375806694
aF42.93440666094155
aa(lp299
F211.25205167692616
aF234.3377321594579
aF48.72057938443225
aa(lp300
F200.65548644537978
aF208.302439086454
aF13.516054159283579
aa(lp301
F166.05838629725645
aF206.9715121560477
aF69.35398266276012
aa(lp302
F194.8755389807208
aF241.78383228857862
aF107.481287555155
aa(lp303
F225.85837734145707
aF237.0461314908838
aF23.899465069120527
aa(lp304
F159.78119429307313
aF189.58893827553354
aF42.26464719800888
aa(lp305
F170.039193404878
aF205.26046982196965
aF57.557000767698206
aa(lp306
F156.31528747489781
aF207.766722784266
aF87.12982390059935
aa(lp307
F160.8095471382206
aF214.96994159740444
aF98.97872392804844
aa(lp308
F189.4904383597734
aF216.43118518456407
aF48.99805677910042
aa(lp309
F199.68573190976696
aF222.60504393015387
aF45.71555754702675
aa(lp310
F239.51218392831615
aF242.0053523004057
aF6.157368246672042
aa(lp311
F207.7823361085785
aF248.22881604566618
aF98.83840017692316
aa(lp312
F217.20225389387446
aF222.46674119549834
aF9.902134892253684
aa(lp313
F217.44691779230467
aF221.32596814978987
aF8.848418188408548
aa(lp314
F201.10161644494522
aF228.0800479442233
aF54.09548591390224
aa(lp315
F238.52318985848984
aF246.0678071743598
aF18.35785452601978
aa(lp316
F160.88499064980277
aF234.88878708525806
aF159.32792528318035
aa(lp317
F216.63540716045367
aF239.30020464390145
aF52.90240887699583
aa(lp318
F181.23260757954745
aF197.37843152558423
aF23.278774073251093
aa(lp319
F209.9925134617348
aF217.59599867001936
aF13.719664580912449
aa(lp320
F175.83462854101515
aF209.77231873004456
aF58.628558552914846
aa(lp321
F187.94482916215733
aF213.1969578767372
aF44.23266019999995
aa(lp322
F238.40031250604483
aF246.84549265440359
aF19.26912738001328
aa(lp323
F160.3905801404904
aF185.91892591587862
aF34.306728004702414
aa(lp324
F217.88868558644958
aF246.2819906894887
aF67.23126707925464
aa(lp325
F152.17676688624388
aF195.01581301589124
aF63.91839286925691
aa(lp326
F224.96524052728154
aF239.72256757587138
aF33.60890398431584
aa(lp327
F238.18815042479193
aF245.91700464919273
aF18.42805825518748
aa(lp328
F157.38704514182078
aF218.86212153643362
aF113.93761684852265
aa(lp329
F174.6950516831057
aF217.85759270359156
aF78.50532013870682
aa(lp330
F204.76199167193602
aF248.41769867098293
aF106.67426688789192
aa(lp331
F222.00354408485833
aF226.3866527306155
aF8.834416514031066
aa(lp332
F223.70346606321323
aF236.83434434299366
aF31.11910197507548
aa(lp333
F161.11683043969168
aF168.6909587274579
aF9.185682673970062
aa(lp334
F181.57470734864967
aF195.17771202036226
aF21.49507978894607
aa(lp335
F177.89918495554508
aF199.50809352261004
aF32.489647892791396
aa(lp336
F184.04666875128692
aF234.09434933420954
aF107.06428405154266
aa(lp337
F176.22525955859288
aF212.1002768436295
aF62.78294791557656
aa(lp338
F178.39369872250347
aF207.39683703041732
aF48.49530669347343
aa(lp339
F188.6230233185047
aF243.20294051886964
aF126.75399387654333
aa(lp340
F194.68894217048177
aF223.39806188096358
aF55.74433593124613
aa(lp341
F209.99081577406065
aF240.04124373763992
aF68.41228555856986
aa(lp342
F214.2963169676955
aF246.43193811751962
aF75.93374577760237
aa(lp343
F218.51474826183158
aF247.57242001456245
aF70.53720273491342
aa(lp344
F223.97905910444734
aF244.86285431897608
aF49.719448662338245
aa(lp345
F193.67055288141685
aF247.18297847197374
aF130.21805152718062
aa(lp346
F205.91744488026728
aF242.08495293894438
aF84.3577425280827
aa(lp347
F153.94519020461036
aF200.42140251490613
aF74.46009359379624
aa(lp348
F213.3031612177658
aF233.31217226881057
aF41.172812255295106
aa(lp349
F214.03638181446917
aF228.2332790020524
aF29.98959151926906
aa(lp350
F227.33222100249085
aF228.69978198536595
aF4.177288447394344
aa(lp351
F216.87994988817098
aF219.36032963903244
aF4.133115326486496
aa(lp352
F178.58310623880763
aF210.34198288269093
aF54.932315636916265
aa(lp353
F166.14783297717534
aF206.37231422671437
aF68.79071068196048
aa(lp354
F175.04958231970897
aF181.79614210158917
aF7.522816098103693
aa(lp355
F187.82990195010618
aF201.310367918561
aF21.245388405236646
aa(lp356
F180.01241736059816
aF224.38294350597116
aF86.11369958062214
aa(lp357
F180.34406262861648
aF234.9253672639973
aF119.15603463061937
aa(lp358
F163.7828363119957
aF236.27481865876203
aF158.27420660555077
aa(lp359
F195.24153270042547
aF205.39640731083526
aF18.21788639035137
aa(lp360
F204.66056365256716
aF229.61128790920827
aF50.442667453911675
aa(lp361
F155.80916046852738
aF222.79288754461203
aF130.0256284089417
aa(lp362
F179.01257110181433
aF221.24815026397638
aF80.01397746449695
aa(lp363
F204.52632213092073
aF225.3341675709
aF41.14861902168001
aa(lp364
F173.21513447343105
aF223.02374665120277
aF94.06090854168083
aa(lp365
F176.57587705226288
aF217.8764198431079
aF76.41030611060324
aa(lp366
F197.72011053258572
aF229.56767301484442
aF65.53488359522753
aa(lp367
F164.45048779246275
aF239.62879638624017
aF168.57742985922442
aa(lp368
F168.4219716780858
aF225.8534603721722
aF114.20508642305654
aa(lp369
F157.85314885915415
aF214.03787690557988
aF100.21522070382542
aa(lp370
F180.21532661622297
aF189.86242007649756
aF13.900755511034257
aa(lp371
F168.55026259730408
aF188.49316900390636
aF27.215709160055134
aa(lp372
F152.4821794868461
aF162.77728643441978
aF11.256536348915015
aa(lp373
F166.62728094703604
aF194.16421573201464
aF41.23376378102928
aa(lp374
F182.66722270656888
aF234.37933858114786
aF112.34247026785022
aa(lp375
F203.3448089580446
aF218.681629604705
aF28.29674673300431
aa(lp376
F227.3551595452635
aF242.9891908031967
aF34.19332952325802
aa(lp377
F169.1536813439358
aF170.14647238678867
aF0.31626325528387267
aa(lp378
F238.7620037244185
aF245.28741696572385
aF15.996094131786005
aa(lp379
F238.27792319584165
aF242.48874128454244
aF10.554826979644082
aa(lp380
F196.73271949494506
aF222.96332654036408
aF50.17811245896782
aa(lp381
F202.2204165041547
aF220.1823142568398
aF34.00948590859309
aa(lp382
F176.85307287424592
aF205.23633395583397
aF45.90570671373681
aa(lp383
F216.70314756227634
aF249.15595381609683
aF79.31404197319678
aa(lp384
F178.96323998586433
aF217.95786632397548
aF71.42676991033287
aa(lp385
F155.36786898794875
aF190.27056445882334
aF50.97006813875823
aa(lp386
F222.50003567092614
aF249.59120067318779
aF66.97949811364373
aa(lp387
F170.27362051322243
aF191.1252537488042
aF29.533931842953436
aa(lp388
F232.15140606627904
aF243.0087844067922
aF27.305061618216314
aa(lp389
F236.13056214661515
aF241.84487114804705
aF13.14736172962662
aa(lp390
F152.6935429206938
aF192.13193742148854
aF56.64810913267768
aa(lp391
F188.6084406009432
aF226.4645134621476
aF77.87021628373405
aa(lp392
F228.07626971109818
aF232.3897679799147
aF8.666726539784316
aa(lp393
F204.36927557960072
aF219.53800660544925
aF28.812322593256592
aa(lp394
F152.4402796482147
aF177.37846856059647
aF34.08196822503954
aa(lp395
F154.67150395302502
aF237.8498996106473
aF184.9476206853535
aa(lp396
F218.8420911062921
aF240.6406562428016
aF49.88797089573681
aa(lp397
F181.18299368115973
aF219.60534523002696
aF71.45903483203338
aa(lp398
F199.1403528072998
aF218.810607543579
aF35.1141115135851
aa(lp399
F225.54964997706023
aF235.79281706832307
aF21.25631295544794
aa(lp400
F176.70168124014452
aF225.83106912270156
aF98.462673480225
aa.