(lp0
(lp1
F212.70242401653542
aF244.35728768084303
aF74.48491699868701
aa(lp2
F239.91093888167677
aF243.6487607337658
aF6.983455111727183
aa(lp3
F209.20150312760066
aF247.40657569354767
aF92.1924314830208
aa(lp4
F172.385920342683
aF173.85633763196552
aF1.438280051417033
aa(lp5
F178.72210869766354
aF242.67928615381544
aF149.47314778053584
aa(lp6
F226.7107816128941
aF233.64953776801084
aF15.116379155374101
aa(lp7
F237.77818912081221
aF248.87613562472913
aF27.260840114630955
aa(lp8
F177.73822560358593
aF207.81084067580235
aF49.631819432430994
aa(lp9
F177.06122698651146
aF248.16263213453922
aF172.80977541736615
aa(lp10
F215.59672732512095
aF223.18779293550892
aF14.950106084794701
aa(lp11
F191.12879237327707
aF242.7035686571628
aF119.80598711399753
aa(lp12
F162.04027060666604
aF238.03095302761136
aF169.34325795775746
aa(lp13
F222.64487583484495
aF244.55437373319566
aF50.52769294914446
aa(lp14
F158.25244277834534
aF163.5713066073934
aF6.471274988387733
aa(lp15
F189.75113700041982
aF232.2196533060261
aF89.92700308866826
aa(lp16
F222.2647520614099
aF247.69277383060086
aF62.284828042301854
aa(lp17
F208.47142809395274
aF244.9005004268084
aF87.7270922157908
aa(lp18
F180.47274998515826
aF246.19482834020056
aF157.32456815557015
aa(lp19
F195.35936608312576
aF207.58849425665304
aF19.577551940674518
aa(lp20
F168.88548531251007
aF172.02614563877788
aF4.336111412239004
aa(lp21
F202.68572191487667
aF215.6302844515831
aF24.14823978822163
aa(lp22
F159.38192283710492
aF184.64071596087922
aF35.111634419138014
aa(lp23
F151.31005931074614
aF183.75662692066987
aF44.28300857791748
aa(lp24
F194.6733576592906
aF196.6954142245647
aF2.9089068969146523
aa(lp25
F216.5367850428028
aF234.5967448847554
aF36.6223432137816
aa(lp26
F208.53242174418574
aF243.20582919140207
aF82.14810268115191
aa(lp27
F230.481385077276
aF240.55229603050478
aF22.86480863805083
aa(lp28
F211.27743070587601
aF245.8644187394898
aF83.20247040013533
aa(lp29
F201.7980109601516
aF208.6344806974423
aF12.011838477199577
aa(lp30
F226.7466900358968
aF241.62968618173738
aF35.57234931320303
aa(lp31
F238.4510135321765
aF245.19198563079624
aF14.620369378506169
aa(lp32
F176.88311042057111
aF233.39369769665348
aF119.20058215549578
aa(lp33
F182.2916166375981
aF193.3190539157787
aF16.835001060033974
aa(lp34
F178.77366722738913
aF244.93206594531986
aF156.56764163036183
aa(lp35
F160.37266453750698
aF226.8553042187325
aF133.30046303428284
aa(lp36
F173.6256470332596
aF235.851845383065
aF135.45306712525368
aa(lp37
F209.196240929858
aF230.61212234388248
aF46.20743109955595
aa(lp38
F186.05431859844404
aF211.51021386843948
aF44.44752130141967
aa(lp39
F166.70172047965605
aF248.12510663992003
aF195.32319178700945
aa(lp40
F196.76599097890687
aF199.0427025686886
aF4.075776689852347
aa(lp41
F172.16110490445368
aF235.71148220159762
aF140.27693786721787
aa(lp42
F239.86899670664044
aF246.38692140248722
aF17.150679952693995
aa(lp43
F174.85110800630054
aF222.18787119051197
aF92.4656660671529
aa(lp44
F168.1776201651917
aF195.94073801391966
aF41.99551044376846
aa(lp45
F217.94560402497302
aF227.15102270838292
aF19.677896945723532
aa(lp46
F232.3678430465545
aF248.37204258096634
aF38.467597579649414
aa(lp47
F169.50217256490544
aF200.16527984834195
aF49.78542246274377
aa(lp48
F181.41798720365495
aF221.06513977004658
aF77.46648930108066
aa(lp49
F208.8845395217329
aF235.75542638313118
aF60.20753706374124
aa(lp50
F230.51049767182022
aF238.70008451190424
aF17.566561201550744
aa(lp51
F175.88159952490628
aF246.08259988455978
aF166.63870805369356
aa(lp52
F185.7283584196686
aF199.81774310519873
aF22.632987877005633
aa(lp53
F161.58340218723956
aF190.446109771463
aF43.065521712004404
aa(lp54
F153.7395026773894
aF204.83320727686322
aF83.73627696677663
aa(lp55
F229.64369697761327
aF247.07556137905172
aF42.32266712953821
aa(lp56
F222.2932693191635
aF244.58951761339645
aF54.35302365231981
aa(lp57
F224.9704064994134
aF241.31339848777864
aF36.53729464886925
aa(lp58
F151.4115168701885
aF202.8179099949141
aF82.54265839026371
aa(lp59
F225.45230726828518
aF245.65687701710365
aF48.65291171059559
aa(lp60
F214.3336135533566
aF247.5718809551289
aF80.25281127122386
aa(lp61
F198.1096738055123
aF230.84711325584126
aF67.6926806985847
aa(lp62
F210.77187418557094
aF235.89592170439732
aF55.27987891139847
aa(lp63
F178.03521676942256
aF204.9644081488897
aF44.07931805147231
aa(lp64
F236.53406138140835
aF246.48205244358385
aF23.764349348368068
aa(lp65
F192.35353484696853
aF226.73441851707446
aF68.88219620166556
aa(lp66
F211.31194233017467
aF229.5147100809385
aF38.524810351057596
aa(lp67
F184.62690491281137
aF197.31875679825916
aF19.659397550898625
aa(lp68
F150.67021580440695
aF158.48480879951032
aF8.398537802419273
aa(lp69
F218.3094055206707
aF242.76199632907395
aF55.59684026071223
aa(lp70
F216.54047514220974
aF244.4843394232157
aF65.87091472462355
aa(lp71
F211.8423469142969
aF226.1120161313899
aF29.875373889823788
aa(lp72
F208.99985314336277
aF223.38537914756404
aF27.122123529800934
aa(lp73
F195.67505541546655
aF249.75122298059617
aF133.51878363366518
aa(lp74
F181.47677354879266
aF238.04312482826344
aF126.72583070791265
aa(lp75
F216.91008516714544
aF219.9844431045487
aF4.087538069458796
aa(lp76
F155.32583136116148
aF215.03945900432714
aF108.53498181564773
aa(lp77
F192.15365087605687
aF207.53001426001853
aF26.422611035085374
aa(lp78
F175.0993085963717
aF243.09380209202976
aF157.9670202957847
aa(lp79
F184.2228080616309
aF190.27360839931413
aF9.362006184264084
aa(lp80
F176.44997551959958
aF190.27624742502854
aF19.4897138855415
aa(lp81
F193.92732317453837
aF196.9394380399721
aF5.003782158098618
aa(lp82
F210.65422098063937
aF230.80554725367764
aF42.26885832780346
aa(lp83
F155.62997320528302
aF193.66729019058099
aF56.73575896775224
aa(lp84
F229.3492666373495
aF238.27027731982793
aF19.33891184987744
aa(lp85
F199.0083119511282
aF222.5995987375574
aF44.20994659494872
aa(lp86
F211.88666990101166
aF227.61773205456953
aF30.307563426016202
aa(lp87
F229.21870616959023
aF230.76360878195925
aF2.6444761378418886
aa(lp88
F175.01587328711852
aF215.0532740490974
aF72.31312559745955
aa(lp89
F195.69534427648534
aF247.7022021202606
aF127.18390923691628
aa(lp90
F194.09411144147128
aF199.5754570391933
aF7.14939041354991
aa(lp91
F220.11286989170168
aF223.96343497449908
aF8.839817429688026
aa(lp92
F218.67855464248902
aF220.4465800094002
aF4.619307001331388
aa(lp93
F230.23240478770066
aF237.03005291866592
aF15.46668158353306
aa(lp94
F199.95033562876532
aF216.68811735813387
aF29.974279706686197
aa(lp95
F163.9009619808764
aF217.5103499470377
aF97.26386176750869
aa(lp96
F217.48272153389053
aF239.44865249527768
aF49.47175751740698
aa(lp97
F216.49599831440415
aF236.89772117104667
aF43.24225947938288
aa(lp98
F210.30482461643953
aF247.0033482212312
aF89.30881065541891
aa(lp99
F156.76758598806353
aF175.08920440635873
aF22.39971019968348
aa(lp100
F226.6628354501595
aF240.0724477096723
aF29.84948047127227
aa(lp101
F163.06985431917718
aF243.55917777006613
aF188.1494928614422
aa(lp102
F200.81108988020446
aF213.55593301575243
aF25.488533398489327
aa(lp103
F195.25029193580284
aF240.8075904487315
aF103.15158096272452
aa(lp104
F157.65382914734633
aF197.0470627255618
aF60.59649957392757
aa(lp105
F208.54655580356
aF248.27079223101686
aF97.28130363669628
aa(lp106
F201.33052318195752
aF240.10864784698393
aF86.90835999770172
aa(lp107
F176.52779815428644
aF201.7678766188065
aF39.922413490897355
aa(lp108
F205.59349812929372
aF212.46688594755426
aF11.212305885237882
aa(lp109
F189.72358461138134
aF228.58113371984234
aF79.6736596249984
aa(lp110
F215.78291555152063
aF241.4500817714045
aF60.01070407678658
aa(lp111
F225.71475872763455
aF242.25452070135705
aF39.50334764063291
aa(lp112
F197.8308095748962
aF216.14288761387624
aF30.53472443414473
aa(lp113
F151.3716862753634
aF211.1471940210359
aF103.87883549044406
aa(lp114
F224.4280102176158
aF247.84596372810057
aF58.629993401655916
aa(lp115
F222.023080371532
aF239.30911834670727
aF38.750766584326996
aa(lp116
F183.90732402902944
aF204.90576367247962
aF33.533797510607386
aa(lp117
F174.1458567201221
aF244.97837468460602
aF166.82914642263205
aa(lp118
F184.28158168494454
aF246.10489673040638
aF150.1412944549589
aa(lp119
F211.88440279820531
aF234.11103069657545
aF45.56426991691415
aa(lp120
F151.78883007998402
aF176.9714241273199
aF32.91859928581504
aa(lp121
F237.8173488557324
aF239.17872250199434
aF4.117223319679711
aa(lp122
F185.95670711731816
aF208.7554491999746
aF37.18382289555858
aa(lp123
F183.54779130323155
aF197.25606446497633
aF21.113782112207208
aa(lp124
F226.79647241303473
aF228.87680637411898
aF4.848749961745785
aa(lp125
F170.20425164530155
aF176.79014514076982
aF9.94882015702143
aa(lp126
F229.60978014182973
aF243.43415846997578
aF32.323829874423005
aa(lp127
F206.06472884092688
aF229.63504854087284
aF50.13700482725509
aa(lp128
F215.2249232012187
aF229.23977516930006
aF27.28164990132261
aa(lp129
F198.41106675454324
aF224.34248182556567
aF51.07148778349124
aa(lp130
F220.44919772717427
aF232.57389055595723
aF24.761832974188213
aa(lp131
F203.26143186933052
aF225.25106379625603
aF43.75987421717317
aa(lp132
F154.39462427887548
aF182.6734781434641
aF38.81957598695045
aa(lp133
F180.68916857929727
aF201.88164736888046
aF33.14092021656657
aa(lp134
F207.95445698982346
aF209.65786762450642
aF2.211636297565889
aa(lp135
F222.43071690340986
aF229.14198752621363
aF12.619672594999358
aa(lp136
F191.1129196093337
aF241.46136219357987
aF116.34831671510025
aa(lp137
F205.43850325763643
aF232.11676774980663
aF54.75249634186019
aa(lp138
F169.2136712117659
aF177.90575989545832
aF12.876520705893089
aa(lp139
F208.54253839692643
aF235.19517253339967
aF58.26454278310179
aa(lp140
F205.2287378925173
aF213.88139116752725
aF16.389116644915177
aa(lp141
F168.52582376410427
aF186.07061466101328
aF24.884550589268567
aa(lp142
F159.89817465897278
aF172.73058955615477
aF14.721796732625565
aa(lp143
F200.4579365066927
aF242.81948784232088
aF98.45113044096783
aa(lp144
F157.7628551216991
aF162.2010397579082
aF4.319140889079229
aa(lp145
F156.20042785008854
aF170.16124065562616
aF16.865286541937675
aa(lp146
F207.14575206448893
aF249.7710055060443
aF104.8618815637399
aa(lp147
F232.1778636693985
aF249.97490548500693
aF45.641258864070906
aa(lp148
F234.8028803984148
aF242.6649666628505
aF18.10034441239344
aa(lp149
F223.11741272325057
aF248.41106775318627
aF60.24350532613315
aa(lp150
F207.59619583934358
aF218.9208044992152
aF22.6044651237808
aa(lp151
F153.90610409439435
aF179.95162673793283
aF33.83216946219351
aa(lp152
F231.56361572703605
aF248.27795816482907
aF41.382051105077444
aa(lp153
F163.7287084469228
aF167.56964631504107
aF4.0348112475115645
aa(lp154
F178.14839359841415
aF185.16291201224277
aF10.778493472748654
aa(lp155
F211.125433532298
aF230.01362423856045
aF39.45209589296048
aa(lp156
F196.76802594767696
aF213.7746163188514
aF27.2043720415758
aa(lp157
F218.23361357590767
aF249.97247188414778
aF78.92961433877502
aa(lp158
F220.54514230163645
aF235.92674602694095
aF34.46739724621361
aa(lp159
F181.44515798311187
aF190.13851444081777
aF11.877323863401474
aa(lp160
F208.04505274841057
aF209.33767124698727
aF2.022044729673959
aa(lp161
F234.04328938867275
aF241.55128904905692
aF17.890788073303458
aa(lp162
F168.3293343726243
aF192.83134073453664
aF35.727210900030386
aa(lp163
F172.5128558807878
aF180.38276901368678
aF10.080064682383002
aa(lp164
F221.54500642851545
aF234.2712857477022
aF27.522522869077275
aa(lp165
F221.17737329443884
aF224.8286914448865
aF5.8283777231895195
aa(lp166
F156.6159651762602
aF182.97674059218434
aF35.1204138332168
aa(lp167
F219.11196739518397
aF239.04157836002022
aF44.37855312855577
aa(lp168
F212.98514259400272
aF221.73017747173944
aF18.71155947242275
aa(lp169
F183.52148278741726
aF188.93643204547138
aF8.28918521168059
aa(lp170
F202.37938672826647
aF218.11728351229468
aF28.012059221816624
aa(lp171
F211.46102417429609
aF240.95254438474007
aF68.50896800423364
aa(lp172
F188.6596108601918
aF235.13707318731971
aF99.48011138031197
aa(lp173
F201.5784574956771
aF236.69162003934946
aF78.03224517058123
aa(lp174
F190.06778167237889
aF246.30802957567636
aF134.6874921568769
aa(lp175
F166.96594023388758
aF178.38072189244204
aF15.003739653767443
aa(lp176
F229.05983259427734
aF238.18053227696674
aF18.063105126662723
aa(lp177
F189.78328712370956
aF240.17431631057312
aF111.91230704942096
aa(lp178
F153.61876625803148
aF237.5471901746419
aF186.48080081757587
aa(lp179
F214.95478277045729
aF216.16956332653245
aF2.6620412690985247
aa(lp180
F221.31044069517952
aF249.53811726270334
aF69.18453901350348
aa(lp181
F161.55088038612382
aF195.3898244098808
aF50.59863683653697
aa(lp182
F191.56573374819794
aF234.83906127239553
aF94.35092617507486
aa(lp183
F216.76389631325793
aF246.7159485526311
aF70.28444681358388
aa(lp184
F223.88786101143683
aF236.21080109678405
aF25.24620943415832
aa(lp185
F152.6997923086932
aF203.49230520089705
aF82.07712549645838
aa(lp186
F155.6955946409601
aF156.5564988358949
aF1.5165418635008399
aa(lp187
F171.956047483223
aF217.04728864880133
aF82.04553736268733
aa(lp188
F200.17201643567645
aF242.24288235142618
aF97.67397849657463
aa(lp189
F189.08337564276053
aF232.11900946106837
aF90.45454575496497
aa(lp190
F229.80950710726972
aF236.849218510975
aF14.251995144720556
aa(lp191
F227.63016661655342
aF249.62327480369436
aF54.35642433885049
aa(lp192
F165.3822990287726
aF177.6356316616094
aF15.666269316821241
aa(lp193
F225.74312096863093
aF229.0794768437095
aF6.656201841382086
aa(lp194
F209.92152245357448
aF249.81238142982775
aF100.1201854568728
aa(lp195
F238.08170252221123
aF246.13916530288486
aF19.979762909682
aa(lp196
F165.29534169040846
aF180.6357212490303
aF20.248082636683286
aa(lp197
F155.17223074250603
aF232.57165047863515
aF164.5197450643572
aa(lp198
F217.23261262218634
aF226.590233388578
aF18.701879379926325
aa(lp199
F191.58404172557707
aF214.30945899559194
aF41.147587892261086
aa(lp200
F161.90058491964035
aF186.23535471224756
aF33.330834767340775
aa(lp201
F180.03678664930192
aF185.74872869934885
aF8.097278694603583
aa(lp202
F228.43165987843338
aF228.59557430166396
aF0.001199732075069626
aa(lp203
F175.03058260534678
aF196.50050545297887
aF32.575299655230744
aa(lp204
F194.8869428025999
aF210.01942867003083
aF26.362349535970882
aa(lp205
F162.12603801638167
aF208.48777182783135
aF80.01726654898981
aa(lp206
F186.51872774203156
aF187.86231566943692
aF1.8056830996930504
aa(lp207
F196.1377715299828
aF231.71694941919532
aF75.23195474382068
aa(lp208
F197.09910100013872
aF238.45015745641496
aF90.52483919476316
aa(lp209
F156.32018582067656
aF247.3491866933507
aF220.2093553021547
aa(lp210
F197.39089870641016
aF217.55159616407207
aF36.292029090985714
aa(lp211
F165.5245984490465
aF240.05166606237339
aF167.33300649170627
aa(lp212
F187.78544977418647
aF189.99676980309104
aF2.7637921066206603
aa(lp213
F205.51369512990544
aF215.17717718538682
aF19.09346674306216
aa(lp214
F159.7089235739304
aF237.37345014717877
aF171.466046609764
aa(lp215
F158.7242015699763
aF232.1241052514295
aF155.28382632358225
aa(lp216
F170.74778916707942
aF176.01224888271923
aF6.686978602364543
aa(lp217
F177.6554993464138
aF193.02479890705456
aF21.12785260561978
aa(lp218
F210.29952738701573
aF223.99640150305345
aF25.387037734223867
aa(lp219
F171.38792072871811
aF201.37587020539735
aF48.83160570198472
aa(lp220
F172.64180720268502
aF185.09520861554284
aF16.54020819533836
aa(lp221
F216.51731080798163
aF224.8222519722012
aF17.622449339204987
aa(lp222
F165.8591672500714
aF169.8184340672158
aF5.317954179942612
aa(lp223
F216.6279632812852
aF236.46953882761318
aF43.07432016925782
aa(lp224
F193.9374973970029
aF216.0665241091882
aF41.808270096254226
aa(lp225
F228.38530615220662
aF231.93082355275286
aF7.271889713725374
aa(lp226
F226.1220318596341
aF234.38652395986634
aF17.09915383240311
aa(lp227
F181.67878276797683
aF238.72172002918538
aF127.10700715873855
aa(lp228
F239.51940489380374
aF240.9160087036381
aF2.343164734234535
aa(lp229
F152.17520727725216
aF225.1419907196144
aF143.45217011689138
aa(lp230
F201.57189363146952
aF231.41862344326972
aF61.640386870898524
aa(lp231
F204.23934558398884
aF206.5215856763025
aF4.430115794929094
aa(lp232
F217.369946375583
aF221.4055926440382
aF7.302172549074679
aa(lp233
F198.47326466181426
aF210.56243806524174
aF20.0998946938857
aa(lp234
F211.98736342698328
aF222.14991645328755
aF20.12018284963166
aa(lp235
F184.6653217914289
aF198.00551840892473
aF20.563641052953226
aa(lp236
F222.09675555784415
aF234.70638793634987
aF28.101846204138333
aa(lp237
F230.56126301913437
aF237.38478685141735
aF16.980563662321067
aa(lp238
F192.6716595832192
aF228.25308702566488
aF72.01484611616512
aa(lp239
F157.07639481419602
aF183.2039914080501
aF35.35703247234187
aa(lp240
F183.16747753191407
aF184.08318807515562
aF0.5834087450545422
aa(lp241
F185.94901572998978
aF239.12714758472367
aF119.0022742849737
aa(lp242
F205.35611506267728
aF230.87554929416683
aF54.02371118257968
aa(lp243
F237.5557131426902
aF244.84516585146582
aF16.205875596337123
aa(lp244
F153.70824399171593
aF183.55218616849257
aF40.525438759736375
aa(lp245
F211.83809927245377
aF226.58201275344948
aF29.138462769298528
aa(lp246
F179.947273489091
aF206.3168074594012
aF42.93282196446029
aa(lp247
F211.87481372373662
aF238.30649805573404
aF58.397519685136295
aa(lp248
F156.16095703093825
aF239.0867538072378
aF186.919891261553
aa(lp249
F170.07461097403217
aF209.38821257305648
aF68.6183772686163
aa(lp250
F222.53046831860826
aF224.35256565109822
aF4.364368148822125
aa(lp251
F216.5364337462797
aF249.21209208466266
aF79.37178956471304
aa(lp252
F189.86064310163198
aF240.20335311103085
aF114.88321062849539
aa(lp253
F226.76444071790934
aF227.09776242777352
aF-1.836830182686888
aa(lp254
F173.55011979978744
aF223.52070254487748
aF96.34720810167437
aa(lp255
F165.96454713734883
aF199.6694644461874
aF53.16448753447558
aa(lp256
F224.52043094641067
aF232.62582318321063
aF17.103757385423958
aa(lp257
F202.27924567897992
aF242.49707424128715
aF93.27357256021301
aa(lp258
F186.800301334372
aF247.62738560986912
aF148.25961741103518
aa(lp259
F170.0743728013047
aF180.52368613304517
aF13.274755054676584
aa(lp260
F216.44827117689886
aF220.0427205481967
aF7.3899822146631955
aa(lp261
F229.69421415057718
aF233.31692621066696
aF9.548704178250203
aa(lp262
F220.40967886995193
aF227.95543310199784
aF16.2395785092907
aa(lp263
F192.02354754244078
aF240.3030291354688
aF108.9937791134806
aa(lp264
F159.4892914822903
aF208.67669865984712
aF82.10961227907033
aa(lp265
F213.0931647564254
aF227.8692157808337
aF30.27998057202021
aa(lp266
F186.63429733446873
aF194.37744551641484
aF11.98761487888258
aa(lp267
F233.5780739625436
aF245.0472898718986
aF25.750431711069233
aa(lp268
F181.19448075923074
aF203.11853837188258
aF36.44291922719707
aa(lp269
F227.86446174573243
aF242.00258191868153
aF32.3564656747282
aa(lp270
F216.06556908035128
aF223.48889363861366
aF13.791383128070128
aa(lp271
F171.22674774274418
aF240.56227255455457
aF158.73852391533367
aa(lp272
F166.255407508473
aF243.76792283228468
aF181.99899006230487
aa(lp273
F159.8394730702002
aF206.20048476297865
aF75.91823076482582
aa(lp274
F227.47207546130494
aF233.58379024625233
aF13.333785606263971
aa(lp275
F154.02648698067375
aF221.79806518159597
aF130.88144190357022
aa(lp276
F228.70797822564077
aF244.76132970157687
aF38.082645678618086
aa(lp277
F166.88893179936485
aF215.99807106875056
aF88.15606852109738
aa(lp278
F209.82097902574415
aF224.92349498193906
aF29.26679629952726
aa(lp279
F233.84315157811892
aF247.25010289964197
aF32.32141187629591
aa(lp280
F172.0500560194283
aF207.9383731442018
aF59.86293496678739
aa(lp281
F177.35236367460448
aF201.50039802585184
aF39.05329966330216
aa(lp282
F210.58585977021426
aF221.57705325327478
aF22.40592301973516
aa(lp283
F232.73736037752104
aF244.09110686140548
aF25.615706488197507
aa(lp284
F192.32526808780716
aF215.84137196395258
aF44.48643089731217
aa(lp285
F203.5645037160615
aF224.2644840493528
aF41.41228451994536
aa(lp286
F196.8159203929127
aF225.77477085203125
aF58.125771648723365
aa(lp287
F168.0952529462768
aF202.3234350199734
aF56.3450231343419
aa(lp288
F184.7896761003055
aF196.35711305763095
aF17.109339298667845
aa(lp289
F236.77123197086974
aF239.15126284424923
aF4.818322231696127
aa(lp290
F174.46648410235719
aF248.13653293885915
aF178.2217435029126
aa(lp291
F205.6288989857553
aF217.1322001140557
aF20.381179437717055
aa(lp292
F216.49329600310426
aF234.19319142750226
aF37.406011291534575
aa(lp293
F156.2289169906386
aF156.81196347550124
aF-0.2213143433759147
aa(lp294
F170.49013624877296
aF190.97081999730273
aF27.966319647109366
aa(lp295
F161.69975987158023
aF209.26173742178
aF82.65578414068253
aa(lp296
F160.08901303626666
aF175.22774140665112
aF20.804901346798832
aa(lp297
F150.30625348825026
aF176.53660717167477
aF33.559240343850085
aa(lp298
F181.37993741650146
aF205.63269641229604
aF40.8170727322481
aa(lp299
F195.88490836679452
aF239.81535512086788
aF99.34599934986522
aa(lp300
F180.55442263928586
aF199.28149872049403
aF28.074215940021098
aa(lp301
F225.2957404826502
aF238.65898546575377
aF30.864548652257742
aa(lp302
F219.73807127510236
aF235.4232704643634
aF33.80251791103603
aa(lp303
F185.17207287396795
aF206.10721420680082
aF35.99559624807717
aa(lp304
F197.31882513142386
aF231.7900742121574
aF72.90748722801541
aa(lp305
F175.17882612888792
aF233.8807743311599
aF126.42830606481093
aa(lp306
F236.30613617264586
aF246.6938700912661
aF26.021084258551184
aa(lp307
F199.47604683259328
aF229.29533716430822
aF60.4019241131393
aa(lp308
F196.65093181106252
aF237.8215462137864
aF90.23639125451157
aa(lp309
F203.91022514885034
aF239.21426083404907
aF79.02159635226121
aa(lp310
F153.31232605120334
aF203.6960994909545
aF82.25563778040363
aa(lp311
F167.15002703359505
aF222.61117035653953
aF106.63430739820208
aa(lp312
F188.2894363408399
aF205.24272288038415
aF27.06588907197434
aa(lp313
F226.3027767175769
aF235.98723292663365
aF20.099340108970615
aa(lp314
F232.05048230209428
aF234.95849666972418
aF5.455127383778059
aa(lp315
F182.26294777732687
aF239.3808028975236
aF130.40617444864762
aa(lp316
F174.54577389895246
aF183.92039046606564
aF11.966172373580854
aa(lp317
F169.46030948124508
aF178.5629908383677
aF12.45960669408233
aa(lp318
F181.80532239169037
aF221.8123668820994
aF80.03338446343695
aa(lp319
F226.40053630093252
aF236.8758077034267
aF22.885921876424334
aa(lp320
F231.84509483787485
aF242.7959728496348
aF26.607634861256624
aa(lp321
F232.28724444347168
aF242.24824166303537
aF25.532930567289096
aa(lp322
F206.35994586031458
aF219.92350237260868
aF25.158699639501823
aa(lp323
F223.49194238743524
aF241.17877643567783
aF39.97922234254389
aa(lp324
F239.62124512246373
aF249.62852228942364
aF24.853993260290263
aa(lp325
F156.67808826819837
aF199.1216531875227
aF65.33077383809952
aa(lp326
F190.7004101142531
aF228.55655908662212
aF79.19889649629995
aa(lp327
F175.35057615790336
aF194.67942960737378
aF28.224125648381207
aa(lp328
F152.99158747377598
aF242.48761926563301
aF206.86241675042137
aa(lp329
F188.3797903800733
aF240.00754749948103
aF117.15673608578838
aa(lp330
F233.1194295879763
aF240.0127399440753
aF16.53066651905922
aa(lp331
F210.1341004353742
aF222.09810581728928
aF23.183853153714253
aa(lp332
F186.228915934063
aF211.02984013287517
aF43.90767643266175
aa(lp333
F231.5934718557666
aF245.090696607494
aF30.664463631971294
aa(lp334
F238.63680169371617
aF240.26494292373908
aF4.0637796416327845
aa(lp335
F218.96866511324995
aF238.79955120138612
aF45.18882741266338
aa(lp336
F157.41028298955646
aF247.22335763419085
aF218.05436201384256
aa(lp337
F177.54477081614976
aF185.97319137632786
aF12.223837932348074
aa(lp338
F196.143019069111
aF210.41624657106308
aF24.853212567098495
aa(lp339
F186.76582938273378
aF242.69175118684961
aF130.88092853713292
aa(lp340
F203.88412178098068
aF207.84779273673135
aF6.5167444907233065
aa(lp341
F199.95553977694703
aF216.44890625086083
aF28.576402475526294
aa(lp342
F168.91077366049083
aF200.80642202563192
aF50.49306535754576
aa(lp343
F215.2880383961524
aF232.69419902179249
aF36.97127713390724
aa(lp344
F219.76693074132015
aF226.8588499193532
aF11.914724877013482
aa(lp345
F168.15651627939417
aF173.415574659585
aF6.412032380752897
aa(lp346
F179.59379664478828
aF180.2022171928132
aF0.26777549143341783
aa(lp347
F179.39741824546047
aF231.55989363658705
aF108.26094637522183
aa(lp348
F173.23813387347502
aF215.0610714585839
aF75.08330934712411
aa(lp349
F189.01682850545205
aF201.25356292543523
aF17.088464048709895
aa(lp350
F196.76758696621906
aF208.119285313597
aF19.922499581654638
aa(lp351
F175.50923025259726
aF245.40326760020608
aF167.8523839586511
aa(lp352
F171.40145311721665
aF226.1208223216297
aF110.08250330725035
aa(lp353
F196.52567241488995
aF198.19733068776145
aF0.8967720237874128
aa(lp354
F172.92273189005164
aF233.0734850452471
aF127.36662725962272
aa(lp355
F188.1521740632403
aF240.6752608256885
aF119.67862778704395
aa(lp356
F189.5745827815058
aF229.36116632693626
aF82.94599540092085
aa(lp357
F220.00033161792476
aF228.22466839707016
aF16.67237627161563
aa(lp358
F228.8211081811041
aF240.73310123778285
aF26.709144279529795
aa(lp359
F157.4543283179854
aF207.14450076240303
aF84.4119072621131
aa(lp360
F221.4186707648983
aF225.93178890848833
aF8.433200938456684
aa(lp361
F170.91139158729735
aF238.4694074589401
aF150.226528962382
aa(lp362
F209.0943508819422
aF244.67943394953522
aF85.88509040380023
aa(lp363
F154.375766029103
aF218.52765037186919
aF120.06186409989203
aa(lp364
F205.19291561753545
aF214.05405843195985
aF15.470778604407137
aa(lp365
F169.61250276120396
aF215.6315714479199
aF83.67245683488791
aa(lp366
F217.0111631975534
aF225.4025367161571
aF17.17176487188227
aa(lp367
F210.1995781968797
aF222.84880604856892
aF25.61006776552275
aa(lp368
F226.7059131382448
aF239.10555117151742
aF27.08690468545449
aa(lp369
F153.8692509711328
aF161.94211926429838
aF8.52370100253074
aa(lp370
F220.95315933381983
aF221.24693467512188
aF-0.3749904098313538
aa(lp371
F166.89495340062052
aF245.3483692684486
aF186.23565438259726
aa(lp372
F192.91171200028245
aF210.47170577625067
aF31.745267952039175
aa(lp373
F158.4045675148463
aF165.47974215402144
aF7.440563673500372
aa(lp374
F168.1664143332168
aF227.84637094974954
aF121.7059213486339
aa(lp375
F239.95633331802438
aF249.6814396579542
aF24.19995094219334
aa(lp376
F169.41539057676567
aF198.42773872125386
aF46.423130912912825
aa(lp377
F205.32162526875786
aF209.0057674411438
aF5.771131387879485
aa(lp378
F191.3008177070871
aF240.34478012457174
aF110.6751001288281
aa(lp379
F165.01775219770275
aF209.46238275267325
aF76.72669733128005
aa(lp380
F210.30511009814887
aF243.8498590118396
aF78.88379871263714
aa(lp381
F222.72578581626158
aF241.80787634192427
aF43.474458688111596
aa(lp382
F221.81125164888215
aF243.37935477350496
aF51.84820784243984
aa(lp383
F215.9071400594695
aF223.20634981605397
aF15.823210742674476
aa(lp384
F175.81651780076675
aF177.25426100843146
aF0.7995815487267341
aa(lp385
F234.56660527016828
aF243.88716679438852
aF22.520266993056744
aa(lp386
F233.43796704783838
aF233.78323580369766
aF2.4469610988207187
aa(lp387
F178.70960120725124
aF210.0499323042402
aF55.18121095632204
aa(lp388
F205.30744852353064
aF212.5154960236333
aF12.81654340464077
aa(lp389
F163.24614269904615
aF234.18906372499674
aF153.19466764286537
aa(lp390
F162.55314124043784
aF227.63062404180727
aF132.57458449707016
aa(lp391
F230.12178942621355
aF240.46522227523238
aF24.202043166770405
aa(lp392
F194.9101785095042
aF230.1722989617375
aF73.42318907635158
aa(lp393
F202.57247825584153
aF206.5257036055127
aF9.005662764498819
aa(lp394
F153.22631109646582
aF218.58340508730288
aF122.00609522366419
aa(lp395
F225.38063781881738
aF239.02818195371995
aF31.81612382605442
aa(lp396
F237.86500228345932
aF240.9880152227282
aF7.611946962838315
aa(lp397
F222.03313166558678
aF235.9062670598438
aF28.35197633659905
aa(lp398
F171.1759284729109
aF241.67505037806484
aF162.15362898846575
aa(lp399
F222.91898071418984
aF236.3240163582041
aF29.619409692665055
aa(lp400
F160.46808494306293
aF208.82796861004329
aF83.70340606284248
aa.