(lp0
(lp1
F196.34749325624878
aF210.11925566847202
aF23.391732576678354
aa(lp2
F189.1581815245942
aF238.6226654215039
aF110.54554699704914
aa(lp3
F204.5617161791241
aF218.50662462647153
aF26.049185678169824
aa(lp4
F221.71026144386758
aF225.11151519489587
aF6.623590985891893
aa(lp5
F231.3993946518912
aF236.4600468784878
aF11.302179343362694
aa(lp6
F201.25874907339713
aF224.16431001000697
aF45.73507223345526
aa(lp7
F216.09062720640844
aF224.86625567289565
aF18.36677205178449
aa(lp8
F188.74670874319202
aF200.0677652506365
aF17.488698192440772
aa(lp9
F177.51301119246523
aF226.33609262230155
aF98.50298666098051
aa(lp10
F153.24323436619719
aF207.17995385849883
aF91.26755206280014
aa(lp11
F238.41324699336906
aF248.62173962580044
aF24.347959562338776
aa(lp12
F224.514599342471
aF238.18953373057064
aF31.170950453298992
aa(lp13
F173.05532230870182
aF241.2186397730308
aF155.93242764226432
aa(lp14
F235.61496733594646
aF237.71304206632217
aF3.5849613157494726
aa(lp15
F156.16925997603192
aF169.38503345689733
aF16.18147438483498
aa(lp16
F193.00656410193068
aF246.15702151428113
aF126.9258864793203
aa(lp17
F200.55845691833179
aF238.241549823519
aF84.07327557109657
aa(lp18
F222.23470161605272
aF233.5810026696112
aF23.560926370879713
aa(lp19
F151.72318909338185
aF199.79458546953276
aF74.72419301596561
aa(lp20
F184.21880247221318
aF235.62699795748782
aF111.56282319971524
aa(lp21
F227.729028822866
aF243.1210065320557
aF34.82930978598096
aa(lp22
F178.80908321798654
aF214.86663704701616
aF63.127708403371116
aa(lp23
F210.16840681590068
aF220.2430223035519
aF21.70925699580472
aa(lp24
F174.57324843529045
aF183.77497162753352
aF13.171369721423673
aa(lp25
F178.8627695172569
aF237.43544715411753
aF129.94247563741547
aa(lp26
F227.86397406303132
aF249.8776000714405
aF54.8763042174139
aa(lp27
F176.5546293963846
aF241.5501643205299
aF150.01545194089832
aa(lp28
F156.25729861637726
aF219.38497004740418
aF117.64658489492682
aa(lp29
F183.77797494293105
aF189.71963921219384
aF10.378508868138166
aa(lp30
F209.92276451154956
aF229.80202385547295
aF41.14511987897281
aa(lp31
F227.98665834488082
aF246.899789003715
aF45.578485039278576
aa(lp32
F235.2766783858052
aF249.18465255297383
aF35.3965913384061
aa(lp33
F192.16585901762556
aF197.57811890599612
aF9.285091378528346
aa(lp34
F174.66920895617037
aF200.65111374887437
aF42.67021762662095
aa(lp35
F159.16184478865637
aF236.53625133396412
aF171.11283207219068
aa(lp36
F174.91677467707808
aF176.6392217092248
aF2.3868829830038236
aa(lp37
F183.90194474684267
aF228.91294092592733
aF91.40815467593977
aa(lp38
F176.6955646637605
aF188.8608799548917
aF18.046149403745723
aa(lp39
F179.15019493197093
aF210.98506407086728
aF55.26887424831808
aa(lp40
F238.53335808649635
aF247.12377136053695
aF20.672738007287375
aa(lp41
F166.27362273902094
aF203.73398064165758
aF62.08462676547971
aa(lp42
F189.20047342588185
aF244.96250436811005
aF131.750782534646
aa(lp43
F197.1067305539263
aF225.03179002327522
aF56.8511965899819
aa(lp44
F162.8654272405992
aF175.41626468142422
aF14.575219269008745
aa(lp45
F200.70355133250135
aF215.94405017705674
aF28.823542833430256
aa(lp46
F166.64863151517736
aF211.54408673023283
aF78.21972139475113
aa(lp47
F191.5726235877355
aF236.08425732292613
aF98.20347305030519
aa(lp48
F222.7717019280742
aF246.42613112334652
aF55.025648946860926
aa(lp49
F185.5799366171275
aF216.63992703822183
aF55.77202533126596
aa(lp50
F230.85969248261026
aF246.24745707803763
aF36.78154159167484
aa(lp51
F155.5655688691085
aF227.1650323276979
aF144.19768481966125
aa(lp52
F171.7611295798751
aF202.41341690337003
aF50.58193152650204
aa(lp53
F162.08522632641495
aF204.7865895122879
aF69.02215284054792
aa(lp54
F235.0897510800193
aF236.15654592054244
aF3.159276438976587
aa(lp55
F151.3799706808171
aF208.65089567915476
aF98.81039981188187
aa(lp56
F155.95052592235106
aF199.79693011746645
aF69.12948689017
aa(lp57
F203.4359011869604
aF215.66824758540844
aF24.333879767871558
aa(lp58
F178.26629844323267
aF220.88492620852952
aF81.30006772713874
aa(lp59
F206.04540820227166
aF224.64053929763676
aF36.674723429732644
aa(lp60
F226.02556322159228
aF232.39721435530882
aF15.223014992172722
aa(lp61
F194.1921899747598
aF231.72958779284858
aF77.72221454197322
aa(lp62
F193.60035895141098
aF236.61878193230487
aF93.72523897758803
aa(lp63
F203.15963340302756
aF215.6033815719087
aF25.062868093969907
aa(lp64
F163.780180068437
aF183.1700645425362
aF24.12868267149153
aa(lp65
F213.92966482964874
aF218.87922572907948
aF8.923400948334454
aa(lp66
F189.1575202914621
aF203.8217582831909
aF21.19177505485851
aa(lp67
F219.33467245649547
aF230.0474009140322
aF22.99617515890997
aa(lp68
F215.0748092501185
aF236.55583431018655
aF47.328658775524666
aa(lp69
F168.79213546554868
aF242.84647520960738
aF172.29214167215252
aa(lp70
F206.27139681524875
aF207.25457927503604
aF0.26045954647484004
aa(lp71
F175.82076495017574
aF216.69793410630822
aF75.74411879725167
aa(lp72
F234.65740303523
aF238.41264199397472
aF8.267405928681585
aa(lp73
F151.6804216217656
aF229.13392223563727
aF159.55458770489508
aa(lp74
F200.51602464370382
aF224.6419736087481
aF46.8969933319153
aa(lp75
F205.87107039965218
aF248.40779763618207
aF103.81916342498593
aa(lp76
F156.13463097955537
aF209.077851872098
aF89.74303070366659
aa(lp77
F205.95901863752226
aF242.84564253823044
aF84.57206586150166
aa(lp78
F157.6836663556538
aF185.96392653399775
aF39.36594219075895
aa(lp79
F188.70809111717801
aF221.36212711877607
aF61.27408884939578
aa(lp80
F228.14704339700467
aF238.85381154524418
aF22.52449436633758
aa(lp81
F217.02158969522557
aF221.50815852314182
aF9.07946284752643
aa(lp82
F231.29921810208646
aF239.37227474689257
aF16.79575967187998
aa(lp83
F195.91292439937317
aF247.03555432124378
aF123.50796594828942
aa(lp84
F196.88896326914386
aF215.6151072983233
aF34.41914674861935
aa(lp85
F239.12495430314164
aF241.47481294850903
aF5.086005420775595
aa(lp86
F150.02153563251557
aF173.18817734171267
aF28.47958421685054
aa(lp87
F187.39026249722346
aF217.38556941901092
aF54.619324392006675
aa(lp88
F173.1390528757024
aF246.15692521113817
aF175.55215425389068
aa(lp89
F169.09590583702544
aF220.89359522378322
aF99.33520152641097
aa(lp90
F205.5046651983935
aF249.44121263976297
aF109.20946163690155
aa(lp91
F229.96458144331064
aF237.59087192408276
aF18.010587507249312
aa(lp92
F206.98815410395179
aF215.70551996069082
aF16.13768647946395
aa(lp93
F211.78593584403072
aF239.4534826594507
aF62.270020163635934
aa(lp94
F167.17730709384585
aF214.27645199998057
aF85.46005655527479
aa(lp95
F206.66891844643965
aF231.22953752559377
aF51.66918882769207
aa(lp96
F156.01105920477826
aF157.63526600138496
aF1.467321778232702
aa(lp97
F179.0939269403562
aF214.1646672871609
aF62.13845160717442
aa(lp98
F219.94768997340998
aF234.62843227157848
aF30.07975898071686
aa(lp99
F224.0675704359238
aF238.66399907789685
aF34.65318484939412
aa(lp100
F156.9946752992812
aF175.68540867393003
aF22.779292615001427
aa(lp101
F191.94970549399844
aF216.25629984619275
aF44.57472597267832
aa(lp102
F168.23987204375297
aF176.16177307525356
aF9.329912384077005
aa(lp103
F181.99911806209195
aF207.3948672084349
aF43.32180612001168
aa(lp104
F234.93855391659642
aF244.89118603450729
aF21.67921418339218
aa(lp105
F177.12270275312733
aF185.56750870033292
aF12.292484971417963
aa(lp106
F161.42893856865072
aF190.98976482022832
aF41.825426128981206
aa(lp107
F238.86392711814676
aF241.79273787049928
aF6.675051755080515
aa(lp108
F221.76157057479415
aF241.41320848008064
aF41.86981287950095
aa(lp109
F192.82091043348765
aF214.80542692285675
aF39.58069596912241
aa(lp110
F183.2734166163435
aF188.7893283227677
aF7.96379493013693
aa(lp111
F163.87461836630155
aF225.39303621849177
aF122.68664217033977
aa(lp112
F185.39857982272193
aF243.46673399127923
aF135.47633916488869
aa(lp113
F187.69287982999737
aF190.76944184735564
aF4.186820681129255
aa(lp114
F198.1844546994028
aF217.04148167760502
aF34.44964054793204
aa(lp115
F178.87491057836428
aF223.80428878673928
aF86.66618259458222
aa(lp116
F208.10325476157828
aF246.44340095262567
aF91.64944251538675
aa(lp117
F196.47978233295638
aF234.982169278494
aF82.69623635476964
aa(lp118
F158.8281032669649
aF187.3775029430384
aF40.44805323457726
aa(lp119
F169.2129070516122
aF178.91708991699335
aF11.662122172174618
aa(lp120
F150.22180984048885
aF177.83335259367126
aF36.62866103501498
aa(lp121
F187.52326861605422
aF239.657850333282
aF118.36092468472351
aa(lp122
F189.04831195636407
aF219.24095706337695
aF56.95914450112505
aa(lp123
F192.53049410806972
aF208.73551183122595
aF27.34042614786112
aa(lp124
F234.49734046211876
aF243.63749857173613
aF20.924043241834696
aa(lp125
F191.7980524043188
aF207.4773636603944
aF26.630684270359986
aa(lp126
F195.4205776356027
aF208.6770339040574
aF23.88144455497477
aa(lp127
F196.79471496616605
aF226.81108573892894
aF58.87136920444594
aa(lp128
F238.4267320177735
aF249.23309972191234
aF25.7210669755161
aa(lp129
F184.12150854351228
aF236.73154184563217
aF113.82146794880018
aa(lp130
F214.19280931707752
aF233.42464295195106
aF40.6016926137189
aa(lp131
F203.16827769973995
aF211.97324608016382
aF15.74824562221362
aa(lp132
F233.27208000771162
aF249.2114975848413
aF38.20377749714019
aa(lp133
F225.36854059824188
aF246.95992721814213
aF51.92835235960798
aa(lp134
F223.00852951340687
aF227.59040536473665
aF8.135943903195209
aa(lp135
F190.102073117463
aF248.5694134662812
aF143.05580265257396
aa(lp136
F221.1054278806613
aF224.11412192907764
aF5.516717627620568
aa(lp137
F232.03584417246321
aF244.73238232673475
aF28.44438944366273
aa(lp138
F212.3026072078082
aF216.64099658688426
aF5.989475721873992
aa(lp139
F170.56280092415244
aF172.56749976076145
aF1.3745280278343535
aa(lp140
F235.32109742882216
aF242.25479338448787
aF15.314480248674544
aa(lp141
F227.82851583566955
aF229.33929549865303
aF2.269164377519314
aa(lp142
F155.62780405798895
aF217.2738195267112
aF113.08979525406026
aa(lp143
F236.50008525667369
aF240.6574882129155
aF8.577875501271336
aa(lp144
F195.2053154367061
aF231.41361468580845
aF74.85033581374911
aa(lp145
F202.6971570046044
aF241.60601099576826
aF90.75503346442305
aa(lp146
F191.80657475928422
aF210.92239581075066
aF32.400510977396785
aa(lp147
F162.8875105724015
aF200.01681359321842
aF57.950376476091826
aa(lp148
F168.66472305735797
aF174.3998772789906
aF6.667667980694829
aa(lp149
F197.67382226377066
aF213.01330454013444
aF28.474072456117263
aa(lp150
F221.34252446331453
aF223.16500870053684
aF4.732936528100277
aa(lp151
F167.92962509393004
aF225.72228730744658
aF115.4367801362568
aa(lp152
F201.28613510443498
aF219.69955536944838
aF35.602387921447885
aa(lp153
F215.89849323724223
aF226.96523957327136
aF21.829630590424813
aa(lp154
F196.23791632511154
aF221.50441921757744
aF49.04159130981941
aa(lp155
F163.20377389311238
aF173.4366702900361
aF11.86366628140269
aa(lp156
F235.61125364946085
aF247.52707224821825
aF29.101625203804662
aa(lp157
F189.4334514362683
aF218.865237018487
aF55.452648264727166
aa(lp158
F222.06038757433492
aF247.79489693462736
aF62.72371251252077
aa(lp159
F184.51826099431625
aF217.30609591041636
aF59.16910252059835
aa(lp160
F161.0619576011707
aF167.9468693476932
aF8.739621209686897
aa(lp161
F193.84478334184053
aF233.020178535935
aF84.86376040435275
aa(lp162
F223.4188247634592
aF226.67473807280663
aF6.808617572971976
aa(lp163
F223.35317156374958
aF242.19988066665815
aF43.89729290097966
aa(lp164
F159.92247803958318
aF232.88674199970527
aF154.9735889008171
aa(lp165
F200.9644921084852
aF204.45106320698653
aF4.598100873222761
aa(lp166
F183.91070508792086
aF231.7028515688748
aF102.12986295653283
aa(lp167
F156.91967204212165
aF210.28976616594252
aF93.67542702102095
aa(lp168
F225.3959737731093
aF234.45487659621182
aF21.153435248222895
aa(lp169
F216.43178402782934
aF237.237505444018
aF45.24228962584616
aa(lp170
F194.90651775833618
aF211.73554719928558
aF29.692537272049528
aa(lp171
F158.96991890762263
aF180.20084820477106
aF25.9489605731039
aa(lp172
F192.02978133648824
aF216.2059368618364
aF43.41979197573663
aa(lp173
F185.45326162588668
aF225.45078549302343
aF78.94691023405942
aa(lp174
F191.54400079958185
aF211.9667583497809
aF35.66865759609037
aa(lp175
F173.90848809932214
aF174.8969289091326
aF0.8772599849066303
aa(lp176
F208.8289997030409
aF219.18579507211552
aF20.363873676676207
aa(lp177
F161.37025391943024
aF249.98253070376438
aF220.023405147752
aa(lp178
F220.8908587255683
aF228.2686805613091
aF13.827006425062716
aa(lp179
F181.04480009540347
aF194.26689702855114
aF18.441128874064237
aa(lp180
F206.4134582273891
aF245.19592902806733
aF92.12591286173573
aa(lp181
F153.13670911967915
aF193.0342004800388
aF60.88298515201263
aa(lp182
F190.2927069742776
aF241.76848469685453
aF118.3028525269842
aa(lp183
F179.50865752679115
aF215.6001547186546
aF65.38835750257464
aa(lp184
F229.11827204042692
aF236.22107260658964
aF16.803724087249627
aa(lp185
F161.94007500268114
aF167.06177404474568
aF5.139457525489479
aa(lp186
F223.0798231675899
aF230.1960076669653
aF14.601819107610426
aa(lp187
F219.98761087913016
aF235.19000811912233
aF32.704783103799166
aa(lp188
F190.12286438511222
aF237.21216214594546
aF102.55072616985181
aa(lp189
F180.4284798008713
aF206.08659313070766
aF42.601341862653264
aa(lp190
F194.46166869757627
aF237.81215196384207
aF95.55109998443696
aa(lp191
F180.5264468303591
aF245.97602171015052
aF156.25480013698586
aa(lp192
F233.51146322932306
aF237.90020066771035
aF10.304419997849164
aa(lp193
F202.90011757450063
aF218.55572413397016
aF29.633326862014464
aa(lp194
F216.01487123779498
aF234.40082343508112
aF39.484237310779726
aa(lp195
F212.43830357146027
aF240.1070995231964
aF63.44849046297642
aa(lp196
F236.98575159766762
aF245.96260963553163
aF22.96503986294798
aa(lp197
F190.88803502778427
aF234.9133984878885
aF95.54320760790631
aa(lp198
F163.9543456191226
aF227.00891780060553
aF127.87852772176991
aa(lp199
F155.85268212880706
aF219.50135303988174
aF118.90472204559079
aa(lp200
F155.83221262750556
aF234.55230170135218
aF170.5700080222785
aa(lp201
F172.50001200720376
aF184.8557266876388
aF16.68351065027195
aa(lp202
F179.20880818466452
aF227.0293342541816
aF94.06000074383957
aa(lp203
F191.77546724871712
aF211.0057154481741
aF34.807300747549725
aa(lp204
F226.19224450526687
aF244.55462294088045
aF43.634416554523824
aa(lp205
F206.9177214853542
aF242.5474410435683
aF83.15095992408241
aa(lp206
F188.08584184196005
aF217.4913923517036
aF54.18047675440647
aa(lp207
F195.71228127565536
aF212.89463991104913
aF31.45883572705469
aa(lp208
F173.25279098315903
aF204.31568901223918
aF51.93621832855159
aa(lp209
F154.65374868799626
aF160.17227557885357
aF5.5172316051940715
aa(lp210
F206.54280971866282
aF224.72560252317612
aF35.266860548331266
aa(lp211
F231.80428452104158
aF242.30028074724828
aF23.998803970367725
aa(lp212
F197.86522707952508
aF235.2678540629616
aF80.16275604659461
aa(lp213
F196.2347538304111
aF216.92518190669045
aF37.60378735239251
aa(lp214
F176.0669538047258
aF243.39147405111964
aF157.17770313232208
aa(lp215
F157.65007837511806
aF227.94989564090224
aF143.54839164362497
aa(lp216
F206.48975440475274
aF233.20569746106463
aF56.20615093391658
aa(lp217
F227.10826291957008
aF246.92694473490164
aF47.467099717971415
aa(lp218
F236.57831863656764
aF244.1287903375536
aF18.42248728514595
aa(lp219
F191.27703790883203
aF209.70684392046698
aF31.46445064704106
aa(lp220
F177.8797116656783
aF220.1593238294271
aF80.93155930938981
aa(lp221
F184.48480407277725
aF234.6324341783062
aF108.48787069834418
aa(lp222
F183.92601357918915
aF196.0306473741705
aF18.518173464649937
aa(lp223
F171.5986046487153
aF210.0449736053671
aF65.36853242865963
aa(lp224
F150.00547604795074
aF150.89455733586135
aF0.1541795353790174
aa(lp225
F210.72400909886022
aF210.8989925114889
aF-0.9130506109824817
aa(lp226
F203.24570456132818
aF206.50519739218586
aF5.270682615996767
aa(lp227
F181.16671946076198
aF189.26316177483403
aF9.407990591323045
aa(lp228
F230.83577812895197
aF245.63411523200264
aF35.79871161425838
aa(lp229
F213.65423672268753
aF214.85199648727271
aF3.0780677596159363
aa(lp230
F229.80022202931713
aF239.40919808017495
aF20.42780636541193
aa(lp231
F191.69379526405731
aF243.11170658162592
aF120.4825118936931
aa(lp232
F168.35431054364705
aF239.77169688497008
aF161.27945989152204
aa(lp233
F168.31627345390876
aF179.08858991980534
aF13.971987092626884
aa(lp234
F231.86316937848824
aF241.76554326963208
aF22.635654213232115
aa(lp235
F174.81605811183232
aF204.81734624381684
aF48.676081393731565
aa(lp236
F192.424216928339
aF230.09671599515286
aF78.73320472723394
aa(lp237
F173.36981611332715
aF240.89231759123064
aF153.84704930830077
aa(lp238
F207.91670151775344
aF211.64993272812436
aF6.907793939491747
aa(lp239
F237.20836340157462
aF248.26386370607753
aF26.021195358318977
aa(lp240
F232.7260608088223
aF243.21092519305714
aF24.534744318936827
aa(lp241
F200.1949580599372
aF225.99190313720186
aF51.27639123682403
aa(lp242
F194.05446556806902
aF197.4262017899634
aF4.052439888103969
aa(lp243
F212.26739542146106
aF223.9245151890891
aF22.311722335855812
aa(lp244
F218.04471374823333
aF218.99672148610483
aF2.627833834625852
aa(lp245
F169.1118574894141
aF191.35322635463334
aF32.079381496078206
aa(lp246
F193.47214700599594
aF206.81114633514161
aF23.060972476963368
aa(lp247
F188.43436926753276
aF221.27484982921828
aF62.80844708673881
aa(lp248
F166.59380501019413
aF228.97949297393217
aF127.33870466043155
aa(lp249
F193.60188148488444
aF244.29162794327289
aF118.05811399879896
aa(lp250
F218.68177730846446
aF247.01895100334326
aF67.9836527482139
aa(lp251
F215.85144744195307
aF239.0722813567795
aF50.05607773746041
aa(lp252
F196.44719914048036
aF240.89640710116515
aF99.2407550381806
aa(lp253
F183.13603981854968
aF237.55391679790282
aF119.6721095585753
aa(lp254
F167.86016215017824
aF247.37111580774808
aF193.0973205115752
aa(lp255
F216.19948149206073
aF229.73199953878623
aF29.03873250505247
aa(lp256
F216.12012796211604
aF247.01783181444415
aF74.54548377415026
aa(lp257
F235.12659335623084
aF245.57176360598544
aF25.7278609491334
aa(lp258
F202.19694220570494
aF220.9189788789115
aF37.3004698164077
aa(lp259
F231.50660010003293
aF231.86307769671507
aF-0.2509989606372719
aa(lp260
F176.74974522067427
aF209.09917375892383
aF55.9376881962286
aa(lp261
F179.54707728831858
aF209.16737652848164
aF51.34485944512915
aa(lp262
F159.99134886509881
aF204.11611321066817
aF73.20098358078255
aa(lp263
F206.69122537395685
aF244.90552040054902
aF89.60151115611194
aa(lp264
F184.44840695285995
aF236.07680333562266
aF113.1531057955289
aa(lp265
F210.32514546295567
aF231.44071475889726
aF41.90102703639384
aa(lp266
F166.49068031267424
aF204.59293561340922
aF62.973846777798556
aa(lp267
F217.1108382360176
aF226.37363244468497
aF17.88301630176188
aa(lp268
F172.47221621605215
aF175.38759132378792
aF3.925301934756345
aa(lp269
F153.81246954545296
aF249.10389177780945
aF233.96138885986883
aa(lp270
F170.26673111756443
aF225.2742540062152
aF109.1280654981353
aa(lp271
F218.48992754105703
aF232.97743559591441
aF30.799172939413324
aa(lp272
F234.20417865114405
aF249.38056902366992
aF37.87159777056445
aa(lp273
F203.86876455060823
aF222.43154477094328
aF36.558589757304205
aa(lp274
F208.16323500110178
aF227.8167120834686
aF40.7838683360813
aa(lp275
F191.5223346826529
aF193.8995438760502
aF4.627085918845374
aa(lp276
F150.57394887608322
aF165.75118148000814
aF16.61554080482652
aa(lp277
F203.27657017371246
aF247.77199747630135
aF107.03161220358305
aa(lp278
F208.30551243533614
aF227.7838280901574
aF39.04950837274375
aa(lp279
F226.74048805423047
aF236.580691689253
aF21.702765826380393
aa(lp280
F154.3568120224315
aF176.0022346785612
aF28.263402828445024
aa(lp281
F225.9874834873449
aF227.75218695805728
aF3.4804648391718964
aa(lp282
F222.22428928451805
aF248.1689195884436
aF63.48305638582612
aa(lp283
F157.50051953850405
aF238.58527589056416
aF182.25543361790835
aa(lp284
F208.0302096714562
aF229.61004868270675
aF45.04937110503484
aa(lp285
F206.21543860802154
aF235.19949182022344
aF64.056143609772
aa(lp286
F233.32238618692207
aF248.61482525038394
aF36.644066403039105
aa(lp287
F171.57169886976865
aF188.1430800369928
aF22.33462889519999
aa(lp288
F239.9989807841836
aF247.7896522781453
aF19.247840101221396
aa(lp289
F175.43534741900854
aF190.94978897235796
aF23.15813605777068
aa(lp290
F179.40916799599904
aF194.47172907817819
aF20.912868125439505
aa(lp291
F227.907600706315
aF230.09761557287578
aF4.882870377795343
aa(lp292
F176.54029285132705
aF192.9892994684169
aF23.885510917367206
aa(lp293
F160.79938981666066
aF249.72289983964276
aF217.87647307169456
aa(lp294
F233.11795809365617
aF236.02681131781236
aF5.601543443337021
aa(lp295
F167.67066045798333
aF200.55179094095683
aF49.57019913311741
aa(lp296
F223.32095869514308
aF248.5455106151409
aF61.333334552322825
aa(lp297
F191.05408151029906
aF227.06370922889602
aF72.49952833891179
aa(lp298
F197.376856844425
aF220.53219241617893
aF43.41624592912492
aa(lp299
F167.38234990429964
aF216.5837864900619
aF89.67990849746407
aa(lp300
F234.6970374869268
aF242.0250116554431
aF17.370905243114727
aa(lp301
F194.79808743313723
aF218.69927870595734
aF44.50529719193929
aa(lp302
F226.47052691313132
aF244.44678303648593
aF41.76310481225343
aa(lp303
F227.19936409548097
aF228.78563715181926
aF3.5583977300903546
aa(lp304
F195.40278977377113
aF221.2815839511546
aF48.350414118648246
aa(lp305
F228.85530118129827
aF244.87036115651955
aF37.37612162776561
aa(lp306
F190.5499282951235
aF222.5572120329245
aF60.36276988097425
aa(lp307
F184.82794580893312
aF204.04871806677514
aF31.13833863747866
aa(lp308
F216.50630380091405
aF237.16567593045266
aF46.59718938908184
aa(lp309
F150.06500701714992
aF176.6666458995776
aF35.40942227810484
aa(lp310
F172.25776880752653
aF220.07860533170563
aF92.20125084767027
aa(lp311
F222.87501679732867
aF233.65066752536634
aF22.310714149458455
aa(lp312
F218.32211653971115
aF240.80054679586033
aF50.82769455955714
aa(lp313
F231.90994437089614
aF245.14923339484739
aF31.559640394207506
aa(lp314
F175.48347231646108
aF216.2637291776727
aF75.5607376583941
aa(lp315
F195.62386670413522
aF208.34594428658258
aF19.97205730428148
aa(lp316
F156.50344442021412
aF162.4000808821924
aF6.064037367780015
aa(lp317
F183.56572527365475
aF188.20749397568287
aF6.8475345921214625
aa(lp318
F154.3777936477288
aF231.79517492668145
aF163.57713808681362
aa(lp319
F174.4688222120691
aF190.98532646682207
aF24.741530805287276
aa(lp320
F176.64744478566314
aF201.19511391963255
aF39.272442121057594
aa(lp321
F165.91854873246606
aF209.7726368009167
aF73.84363373419998
aa(lp322
F163.21040662995458
aF227.58429206448284
aF131.15402975564814
aa(lp323
F155.15182903151836
aF233.360917920875
aF168.07730727375107
aa(lp324
F194.23392443798747
aF240.17211641238606
aF103.91382309278818
aa(lp325
F190.601922179773
aF216.68665859748023
aF45.68851711961074
aa(lp326
F220.93161665141812
aF249.67044607285126
aF72.231300493673
aa(lp327
F153.44289401479622
aF163.56579062340234
aF12.049672819899456
aa(lp328
F192.684130849055
aF205.17954852054453
aF22.43529466070074
aa(lp329
F175.22765487827496
aF242.9595058203143
aF158.48808648746726
aa(lp330
F236.24614821129785
aF248.34886141983606
aF30.90526746800885
aa(lp331
F229.51368528221036
aF238.33134738650583
aF19.397838520808392
aa(lp332
F226.54540269837844
aF236.7233591954914
aF22.751873222915663
aa(lp333
F229.85602942700223
aF244.95855896287506
aF34.53151317673611
aa(lp334
F195.39549392017054
aF216.6290372957571
aF38.320885136788355
aa(lp335
F180.79497495858575
aF228.61543477095645
aF96.4042391129284
aa(lp336
F173.1427210566242
aF209.44404406552977
aF61.68826905346132
aa(lp337
F191.90717384464756
aF230.92608412660044
aF81.94357105984336
aa(lp338
F225.93436700838708
aF231.43176920564125
aF11.593740666336377
aa(lp339
F185.92831140428515
aF203.31732098906633
aF27.409019075271654
aa(lp340
F158.09857870963
aF209.16005716916104
aF86.99344086779101
aa(lp341
F210.1944243151142
aF230.9822327090274
aF43.844600860055984
aa(lp342
F223.9897949682628
aF226.72719672735943
aF4.970517562348275
aa(lp343
F213.41185350805773
aF213.57790804053099
aF-1.5828886317112338
aa(lp344
F189.32922223612024
aF208.1672644287305
aF31.696497487115487
aa(lp345
F153.58556973857773
aF157.70384642583704
aF3.5300049102077184
aa(lp346
F177.0398749889274
aF243.01437259915627
aF153.88075941849044
aa(lp347
F222.97730877322095
aF239.9194824737091
aF36.6442221366351
aa(lp348
F196.34238227341706
aF219.8185860590223
aF43.82007465260908
aa(lp349
F150.12114634350024
aF236.59383848278097
aF188.6806143992997
aa(lp350
F208.74896820303258
aF211.95113925487863
aF6.539024239129301
aa(lp351
F181.27639771812795
aF247.59197702812298
aF160.53183770163182
aa(lp352
F153.54680926863034
aF196.89501764733626
aF65.02687669223091
aa(lp353
F164.4049896101772
aF201.25568444812376
aF60.33107143125638
aa(lp354
F173.90677948728515
aF199.38328064526098
aF40.02139100202513
aa(lp355
F211.2223992138317
aF244.76853739892135
aF78.54652278167057
aa(lp356
F198.41047683571438
aF211.832527986647
aF24.04871623068025
aa(lp357
F154.1671256295906
aF236.17058379585376
aF178.73866709142018
aa(lp358
F152.30169663416373
aF242.69115540327175
aF210.16680650099607
aa(lp359
F156.1561985862913
aF167.71208643096583
aF13.76364772226797
aa(lp360
F202.37609362944255
aF214.15246373185266
aF21.841701184110587
aa(lp361
F181.57591955816295
aF215.75838275287492
aF61.006359042288935
aa(lp362
F181.06593975193988
aF249.06726650608164
aF166.75773071179486
aa(lp363
F163.16868145365626
aF172.86837386407905
aF11.461086332358873
aa(lp364
F198.171366921046
aF242.2687914152881
aF101.597859981874
aa(lp365
F209.38010518762485
aF240.6591878856169
aF72.15103373885559
aa(lp366
F158.94081873774593
aF232.81336661953287
aF157.65963399998049
aa(lp367
F157.37754003605755
aF184.86508065719943
aF38.06473737343978
aa(lp368
F152.14436480567736
aF221.98163471813183
aF132.8723797263504
aa(lp369
F204.10422933375793
aF236.36286555962386
aF69.8557559652684
aa(lp370
F170.8613953989664
aF244.97086216648677
aF174.91031960384169
aa(lp371
F218.98799591137765
aF243.4774323436485
aF58.871002784737065
aa(lp372
F229.2416770335777
aF244.90282276972553
aF34.921584519683634
aa(lp373
F233.9448791344413
aF245.04520324515337
aF26.984325050872695
aa(lp374
F175.22635550332592
aF202.41152010504717
aF43.513555758249026
aa(lp375
F166.9018602838389
aF242.8144640703999
aF176.88804874419657
aa(lp376
F183.3730581437974
aF229.95229824784698
aF95.9502254814597
aa(lp377
F227.48262308995936
aF249.25390075767734
aF55.98138686593622
aa(lp378
F195.01864225990118
aF200.78284569491424
aF9.333911496919804
aa(lp379
F153.94481277714755
aF191.79936119778276
aF55.06674669969949
aa(lp380
F222.0649455350773
aF223.23380053929657
aF1.6509589529054058
aa(lp381
F205.64270324886598
aF220.3581872440018
aF27.18357575760974
aa(lp382
F156.35886700916345
aF176.88415444834857
aF23.826156520235845
aa(lp383
F221.2246048128656
aF223.05738056895393
aF3.0455083832521352
aa(lp384
F168.8254099065634
aF204.83694190541232
aF60.06142140483632
aa(lp385
F199.27337644385972
aF201.40706790384365
aF1.8570702343525753
aa(lp386
F228.9883162578579
aF236.4831809812189
aF15.862039184888122
aa(lp387
F227.00070403167683
aF233.6744066835554
aF14.793995440969212
aa(lp388
F166.44670922146227
aF196.60464551792452
aF46.97006329321795
aa(lp389
F176.2361568718769
aF248.80670568299934
aF178.7979732899454
aa(lp390
F207.12448242535996
aF208.149428375145
aF1.0890517807555762
aa(lp391
F190.18161657972178
aF233.82770800376173
aF94.3433934127834
aa(lp392
F226.81462010769556
aF249.08424705469906
aF56.093913769810754
aa(lp393
F209.66483882228943
aF216.15539918959743
aF12.351259408226472
aa(lp394
F169.61310267501753
aF198.98658720113355
aF47.04012118432791
aa(lp395
F198.03002121362422
aF223.49722399288282
aF51.04020957337765
aa(lp396
F197.37674611605223
aF245.04104284483972
aF114.20967001489514
aa(lp397
F187.81185129962392
aF227.1905940097998
aF79.21569558365961
aa(lp398
F209.24299829905917
aF212.35630192485473
aF5.795153966012803
aa(lp399
F194.4383185681821
aF223.08356162708242
aF54.81140989314312
aa(lp400
F221.85722337782533
aF237.0291904905259
aF33.824741965648585
aa.